
 Start  Stop   Length Name               Class

 00000H 0007CH 0007DH PROGRAM            CODE
 00080H 013C9H 0134AH ShowTErr           CODE
 013D0H 01B44H 00775H TXms               CODE
 01B50H 023A2H 00853H TSystem            CODE
 023B0H 02F1AH 00B6BH System             CODE
 02F20H 0B2A7H 08388H DATA               DATA
 0B2B0H 0F2AFH 04000H STACK              STACK
 0F2B0H 0F2B0H 00000H HEAP               HEAP

  Address         Publics by Value

 0000:000C       @
 0008:130E       _InstallErrorHandler
 0008:132E       _UnInstallErrorHandler
 0008:1341       @
 013D:0000       @
 013D:00A4       InitTXms
 013D:00FA       ReleaseHMA
 013D:0100       AllocateHMA
 013D:010E       GlobalEnableA20
 013D:0114       GlobalDisableA20
 013D:011A       LocalEnableA20
 013D:0120       LocalDisableA20
 013D:0126       QueryA20
 013D:012C       GetFreeXMS
 013D:0134       GetMaxFreeXMSBlock
 013D:013A       AllocateEMB
 013D:014A       ReleaseEMB
 013D:0158       ReallocateEMB
 013D:016A       LockEMB
 013D:017A       UnlockEMB
 013D:0188       GetEMBSize
 013D:0198       GetEMBLockCount
 013D:01A8       GetEMBFreeHandles
 013D:01B8       AllocateUMB
 013D:01C8       ReleaseUMB
 013D:01D6       ReallocateUMB
 013D:01E8       UMBMaxAvail
 013D:0226       MoveEMBUsers
 013D:03B6       InitTEms
 013D:03DF       GetFreeEMSPages
 013D:03E8       GetActiveEMSHandles
 013D:03F1       AllocateEMS
 013D:0402       ReleaseEMS
 013D:0413       MapEMSPages
 013D:042A       GetEMSHandlePages
 013D:0439       GetEMSHandlesTable
 013D:0453       ReallocateEMS
 013D:0466       GetEMS_HandleAttr
 013D:0477       SetEMS_HandleAttr
 013D:048C       GetEMS_HandleName
 013D:04A1       SetEMS_HandleName
 013D:04B6       FindEMS_Handle
 013D:050F       MoveEMSUsers
 013D:0562       WarmBootPrepare
 013D:0569       GetFreeRawPages
 013D:0604       EMM386_GetState
 013D:060C       EMM386_SetState
 013D:0616       EMM386_GetWeitekSupport
 013D:061E       EMM386_SetWeitekSupport
 013D:062C       EMM386_PrintReport
 013D:0632       EMM386_PrintCopyright
 013D:0638       QEMM_GetState
 013D:063E       QEMM_SetState
 013D:064C       QEMM_GetVersion
 013D:0652       QEMM_GetHiramChain
 013D:0670       QEMM_GetManifestPresent
 013D:068B       QEMM_CopyStealthRoms
 013D:06A5       QEMM_UntrappedIORead
 013D:06B4       QEMM_UntrappedIOWrite
 013D:06C7       QEMM_UntrappedIOReadIndexed
 013D:06DC       QEMM_UntrappedIOWriteIndexed
 013D:06F5       QEMM_GetIOCallback
 013D:0700       QEMM_SetIOCallback
 013D:070F       QEMM_GetPortTrap
 013D:071E       QEMM_SetPortTrap
 013D:072D       QEMM_ClearPortTrap
 013D:073C       QEMM_GetStealthCount
 013D:0745       QEMM_GetInfo
 013D:075F       QEMM_GetMemoryStatistics
 013D:076A       QEMM_GetStealthList
 01B5:0000       DoNone
 01B5:0293       @
 01B5:02C5       FillDword
 01B5:02DB       FillWord
 01B5:02FE       FillByte
 01B5:0325       Fill
 01B5:035C       MovePtr
 01B5:037D       SwapByte
 01B5:0392       SwapWord
 01B5:03A7       SwapLong
 01B5:03BF       Swap
 01B5:03F6       SearchPtr
 01B5:0441       ReadMemoryByte
 01B5:044D       ReadMemoryWord
 01B5:0459       ReadMemoryDword
 01B5:0469       WriteMemoryByte
 01B5:0477       WriteMemoryWord
 01B5:0485       WriteMemoryDword
 01B5:0495       ReadPort
 01B5:049F       WritePort
 01B5:04AD       ReadIndexPort
 01B5:04B9       WriteIndexPort
 01B5:04EC       AbsReadMemoryByte
 01B5:0506       AbsReadMemoryWord
 01B5:0520       AbsReadMemoryDword
 01B5:053E       AbsWriteMemoryByte
 01B5:055B       AbsWriteMemoryWord
 01B5:0578       AbsWriteMemoryDword
 01B5:0597       CompareBuffersPtr
 01B5:05BF       Delay
 01B5:05D0       HardwareReboot
 01B5:05E6       WarmReboot
 01B5:05F7       ColdReboot
 02F2:0002       CpuType
 02F2:0004       CpuSpeed
 02F2:0006       CpuIDValid
 02F2:0007       BiosType
 02F2:0008       ExtendedMemorySize
 02F2:000A       CpuVendor
 02F2:0016       OvrCodeList
 02F2:0018       OvrHeapSize
 02F2:001A       OvrDebugPtr
 02F2:001E       OvrHeapOrg
 02F2:0020       OvrHeapPtr
 02F2:0022       OvrHeapEnd
 02F2:0024       OvrLoadList
 02F2:0026       OvrDosHandle
 02F2:0028       OvrEmsHandle
 02F2:002A       HeapOrg
 02F2:002E       HeapPtr
 02F2:0032       HeapEnd
 02F2:0036       FreeList
 02F2:003A       FreeZero
 02F2:003E       HeapError
 02F2:0042       ExitProc
 02F2:0046       ExitCode
 02F2:0048       ErrorAddr
 02F2:004C       PrefixSeg
 02F2:004E       StackLimit
 02F2:0050       InOutRes
 02F2:0052       RandSeed
 02F2:0056       SelectorInc
 02F2:0058       Seg0040
 02F2:005A       SegA000
 02F2:005C       SegB000
 02F2:005E       SegB800
 02F2:0060       Test8086
 02F2:0061       Test8087
 02F2:0062       FileMode
 02F2:0066       Buffer
 02F2:8066       F
 02F2:80E6       NumberWrite
 02F2:80EC       XMS_Present
 02F2:80EE       XMS_HandlesTable
 02F2:80F2       XMS_Version
 02F2:80F4       XMS_Revision
 02F2:80F6       HMA_Present
 02F2:80F8       XMM_DriverAPI
 02F2:80FC       XMS_Result
 02F2:8109       EMS_Present
 02F2:810A       EMS_Version
 02F2:810C       PageFrame
 02F2:810E       TotalRawPages
 02F2:8110       TotalEmsPages
 02F2:8112       TotalEmsHandles
 02F2:8114       EMS_HardwareInfo
 02F2:811E       EMS_DriverType
 02F2:8120       EMM_DriverAPI
 02F2:8124       EMS_Exchange
 02F2:8126       EMS_Result
 02F2:8134       SelfAddr
 02F2:8138       BiosConfigTable
 02F2:813C       Input
 02F2:823C       Output
 02F2:833C       SaveInt00
 02F2:8340       SaveInt02
 02F2:8344       SaveInt1B
 02F2:8348       SaveInt21
 02F2:834C       SaveInt23
 02F2:8350       SaveInt24
 02F2:8354       SaveInt34
 02F2:8358       SaveInt35
 02F2:835C       SaveInt36
 02F2:8360       SaveInt37
 02F2:8364       SaveInt38
 02F2:8368       SaveInt39
 02F2:836C       SaveInt3A
 02F2:8370       SaveInt3B
 02F2:8374       SaveInt3C
 02F2:8378       SaveInt3D
 02F2:837C       SaveInt3E
 02F2:8380       SaveInt3F
 02F2:8384       SaveInt75

Line numbers for PROGRAM(TEST.PAS) segment PROGRAM

     7 0000:000C     9 0000:002A    10 0000:0039    11 0000:004A
    12 0000:0066    13 0000:0075

Line numbers for ShowTErr(SHOWTERR.PAS) segment ShowTErr

   213 0008:0000   219 0008:0003   225 0008:0033   227 0008:0048
   229 0008:004B   231 0008:0051   251 0008:0055   252 0008:0057
   253 0008:0059   254 0008:005B   255 0008:005D   256 0008:005F
   257 0008:0061   258 0008:0063   259 0008:0065   260 0008:0067
   261 0008:0069   262 0008:006B   263 0008:006D   264 0008:006F
   265 0008:0071   266 0008:0073   267 0008:0075   268 0008:0077
   269 0008:0079   270 0008:007B   271 0008:007D   272 0008:007F
   273 0008:0081   274 0008:0083   275 0008:0085   276 0008:0087
   277 0008:0089   278 0008:008B   279 0008:008D   280 0008:008F
   281 0008:0091   282 0008:0093   283 0008:0095   284 0008:0097
   285 0008:0099   286 0008:009B   287 0008:009D   288 0008:009F
   289 0008:00A1   290 0008:00A3   291 0008:00A5   292 0008:00A7
   293 0008:00A9   294 0008:00AB   295 0008:00AD   296 0008:00AF
   297 0008:00B1   298 0008:00B3   299 0008:00B5   300 0008:00B7
   301 0008:00B9   302 0008:00BB   303 0008:00BD   304 0008:00BF
   305 0008:00C1   306 0008:00C3   307 0008:00C5   308 0008:00C7
   309 0008:00C9   310 0008:00CB   311 0008:00CD   312 0008:00CF
   313 0008:00D1   314 0008:00D3   315 0008:00D5   316 0008:00D7
   317 0008:00D9   318 0008:00DB   319 0008:00DD   320 0008:00DF
   321 0008:00E1   322 0008:00E3   323 0008:00E5   324 0008:00E7
   325 0008:00E9   326 0008:00EB   327 0008:00ED   328 0008:00EF
   329 0008:00F1   330 0008:00F3   331 0008:00F5   332 0008:00F7
   333 0008:00F9   334 0008:00FB   335 0008:00FD   336 0008:00FF
   337 0008:0101   338 0008:0103   339 0008:0105   340 0008:0107
   341 0008:0109   342 0008:010B   343 0008:010D   344 0008:010F
   345 0008:0111   346 0008:0113   347 0008:0115   348 0008:0117
   349 0008:0119   350 0008:011B   351 0008:011D   352 0008:011F
   353 0008:0121   354 0008:0123   355 0008:0125   356 0008:0127
   357 0008:0129   358 0008:012B   359 0008:012D   360 0008:012F
   361 0008:0131   362 0008:0133   363 0008:0135   364 0008:0137
   365 0008:0139   366 0008:013B   367 0008:013D   368 0008:013F
   369 0008:0141   370 0008:0143   371 0008:0145   372 0008:0147
   373 0008:0149   374 0008:014B   375 0008:014D   376 0008:014F
   377 0008:0151   378 0008:0153   379 0008:0155   380 0008:0157
   381 0008:0159   382 0008:015B   383 0008:015D   384 0008:015F
   385 0008:0161   386 0008:0163   387 0008:0165   388 0008:0167
   389 0008:0169   390 0008:016B   391 0008:016D   392 0008:016F
   393 0008:0171   394 0008:0173   395 0008:0175   396 0008:0177
   397 0008:0179   398 0008:017B   399 0008:017D   400 0008:017F
   401 0008:0181   402 0008:0183   403 0008:0185   404 0008:0187
   405 0008:0189   406 0008:018B   407 0008:018D   408 0008:018F
   409 0008:0191   410 0008:0193   411 0008:0195   412 0008:0197
   413 0008:0199   414 0008:019B   415 0008:019D   416 0008:019F
   417 0008:01A1   418 0008:01A3   419 0008:01A5   420 0008:01A7
   421 0008:01A9   422 0008:01AB   423 0008:01AD   424 0008:01AF
   425 0008:01B1   426 0008:01B3   427 0008:01B5   428 0008:01B7
   429 0008:01B9   430 0008:01BB   431 0008:01BD   432 0008:01BF
   433 0008:01C1   434 0008:01C3   435 0008:01C5   436 0008:01C7
   437 0008:01C9   438 0008:01CB   439 0008:01CD   440 0008:01CF
   441 0008:01D1   442 0008:01D3   443 0008:01D5   444 0008:01D7
   445 0008:01D9   446 0008:01DB   447 0008:01DD   448 0008:01DF
   449 0008:01E1   450 0008:01E3   451 0008:01E5   452 0008:01E7
   453 0008:01E9   454 0008:01EB   455 0008:01ED   456 0008:01EF
   457 0008:01F1   458 0008:01F3   459 0008:01F5   460 0008:01F7
   461 0008:01F9   462 0008:01FB   463 0008:01FD   464 0008:01FF
   465 0008:0201   466 0008:0203   467 0008:0205   468 0008:0207
   469 0008:0209   470 0008:020B   471 0008:020D   472 0008:020F
   473 0008:0211   474 0008:0213   475 0008:0215   476 0008:0217
   477 0008:0219   478 0008:021B   479 0008:021D   480 0008:021F
   481 0008:0221   482 0008:0223   483 0008:0225   484 0008:0227
   485 0008:0229   486 0008:022B   487 0008:022D   488 0008:022F
   489 0008:0231   490 0008:0233   491 0008:0235   492 0008:0237
   493 0008:0239   494 0008:023B   495 0008:023D   496 0008:023F
   497 0008:0241   498 0008:0243   499 0008:0245   500 0008:0247
   501 0008:0249   502 0008:024B   503 0008:024D   504 0008:024F
   505 0008:0251   506 0008:0253   581 0008:0255   586 0008:025D
   588 0008:0275   590 0008:0284   592 0008:0293   594 0008:02A6
   596 0008:02B9   598 0008:02CD   600 0008:02ED   602 0008:0301
   604 0008:031E   606 0008:0332   608 0008:0341   610 0008:035A
   612 0008:0367   614 0008:037C   616 0008:039C   618 0008:03B7
   620 0008:03C5   622 0008:03D9   624 0008:03E6   626 0008:03F0
   628 0008:0407   630 0008:0412   632 0008:0434   634 0008:043F
   636 0008:0452   638 0008:0463   640 0008:047E   642 0008:0490
   644 0008:04A1   646 0008:04B1   648 0008:04C3   650 0008:04D2
   652 0008:04E6   654 0008:04F6   656 0008:0510   658 0008:0523
   660 0008:0530   662 0008:0548   664 0008:0566   666 0008:0584
   668 0008:059E   670 0008:05B5   672 0008:05C2   674 0008:05E2
   676 0008:0601   678 0008:061D   680 0008:063D   682 0008:0656
   684 0008:0672   686 0008:0683   688 0008:06A3   690 0008:06BB
   692 0008:06D4   694 0008:06E2   696 0008:0700   698 0008:0717
   700 0008:0733   702 0008:0752   704 0008:076D   706 0008:078A
   708 0008:07AE   710 0008:07C1   712 0008:07DA   714 0008:07E6
   716 0008:0802   718 0008:0811   720 0008:0827   722 0008:083D
   724 0008:084E   726 0008:0860   728 0008:0873   730 0008:0895
   732 0008:08BD   734 0008:08DA   736 0008:08F8   738 0008:0911
   743 0008:0929   745 0008:0939   747 0008:094A   749 0008:095C
   751 0008:096A   753 0008:0982   755 0008:099B   760 0008:09B2
   762 0008:09CD   764 0008:09ED   766 0008:0A0A   768 0008:0A39
   770 0008:0A59   772 0008:0A75   774 0008:0A8C   776 0008:0AA2
   778 0008:0ABB   780 0008:0AD4   782 0008:0AF2   784 0008:0B08
   786 0008:0B24   788 0008:0B39   790 0008:0B59   792 0008:0B6D
   794 0008:0B7A   796 0008:0B88   798 0008:0B98   800 0008:0BA7
   802 0008:0BBB   804 0008:0BCC   806 0008:0BDF   808 0008:0C0F
   810 0008:0C28   812 0008:0C3F   814 0008:0C50   816 0008:0C61
   818 0008:0C77   820 0008:0C89   822 0008:0CA0   824 0008:0CAD
   826 0008:0CBC   828 0008:0CCA   830 0008:0CD8   832 0008:0CE3
   834 0008:0CEE   836 0008:0D01   838 0008:0D15   840 0008:0D29
   842 0008:0D38   844 0008:0D42   849 0008:0D58   851 0008:0D70
   853 0008:0D90   858 0008:0DA0   863 0008:0DB7   868 0008:0DC9
   873 0008:0DD7   875 0008:0DE7   877 0008:0DFA   879 0008:0E0B
   881 0008:0E20   883 0008:0E33   885 0008:0E45   890 0008:0E56
   892 0008:0E66   894 0008:0E78   896 0008:0E8F   898 0008:0EA6
   900 0008:0EB7   902 0008:0EC7   904 0008:0ED6   906 0008:0EE7
   908 0008:0EFA   910 0008:0F0E   912 0008:0F22   914 0008:0F3B
   916 0008:0F4C   918 0008:0F60   920 0008:0F76   922 0008:0F8C
   924 0008:0F9B   926 0008:0FB5   928 0008:0FCA   930 0008:0FE9
   932 0008:0FFA   934 0008:100E   939 0008:1026   941 0008:1037
   943 0008:1049   945 0008:105E   947 0008:1072   949 0008:108C
   951 0008:10A4   953 0008:10BD   955 0008:10DE   957 0008:10FC
   959 0008:1114   961 0008:112B   963 0008:1143   965 0008:115D
   967 0008:117B   969 0008:1195   971 0008:11AF   976 0008:11C8
   978 0008:11EF   980 0008:1203   982 0008:1220   984 0008:123C
   986 0008:1250   993 0008:1265   994 0008:1268   995 0008:126A
   996 0008:126C   997 0008:126F   998 0008:1270  1000 0008:1272
  1051 0008:1273  1052 0008:1276  1053 0008:1279  1054 0008:127B
  1055 0008:127E  1057 0008:1280  1058 0008:1282  1059 0008:1284
  1060 0008:1286  1061 0008:1288  1063 0008:128A  1064 0008:128C
  1065 0008:128D  1066 0008:1290  1068 0008:1291  1069 0008:1293
  1076 0008:1294  1077 0008:1295  1078 0008:1297  1079 0008:129A
  1081 0008:129B  1082 0008:129C  1083 0008:129E  1084 0008:12A0
  1085 0008:12A2  1086 0008:12A4  1087 0008:12A7  1088 0008:12A8
  1090 0008:12AA  1091 0008:12AC  1092 0008:12AE  1093 0008:12B0
  1100 0008:12B2  1101 0008:12B4  1102 0008:12B6  1103 0008:12B8
  1109 0008:12B9  1110 0008:12BC  1111 0008:12C0  1147 0008:12C2
  1148 0008:12C5  1150 0008:12C8  1151 0008:12CB  1153 0008:12CE
  1154 0008:12D1  1156 0008:12D4  1157 0008:12D8  1158 0008:12DA
  1159 0008:12DC  1160 0008:12E1  1162 0008:12E4  1163 0008:12E7
  1165 0008:12EA  1166 0008:12ED  1168 0008:12F0  1169 0008:12F2
  1171 0008:12F5  1172 0008:12F8  1174 0008:12FB  1175 0008:12FE
  1177 0008:1301  1178 0008:1303  1179 0008:1306  1181 0008:1309
  1182 0008:130A  1195 0008:130D  1792 0008:130E  1793 0008:1311
  1794 0008:131F  1795 0008:132C  1802 0008:132E  1803 0008:1331
  1804 0008:133F  1808 0008:1341  1809 0008:1344  1810 0008:1348

Line numbers for TXms(TXMS.PAS) segment TXms

   355 013D:0000   356 013D:000A   357 013D:000E   358 013D:0012
   359 013D:001A   360 013D:0027   361 013D:0034

Line numbers for TXms(TXMS.ASM) segment TXms

   218 013D:0062   219 013D:0067   220 013D:006E   221 013D:0074
   222 013D:0078   223 013D:007C   224 013D:0081   225 013D:0083
   226 013D:0084   227 013D:0087   228 013D:008B   229 013D:008F
   230 013D:0094   232 013D:0097   234 013D:009E   236 013D:00A3
   242 013D:00A4   243 013D:00A9   244 013D:00AC   245 013D:00AE
   246 013D:00B0   247 013D:00B4   248 013D:00B9   249 013D:00BC
   250 013D:00BE   251 013D:00C2   252 013D:00C6   253 013D:00C8
   254 013D:00CC   255 013D:00D0   256 013D:00D3   257 013D:00D7
   258 013D:00DA   259 013D:00DC   260 013D:00DE   261 013D:00E2
   262 013D:00E8   263 013D:00EE   265 013D:00F1   266 013D:00F5
   268 013D:00F9   274 013D:00FA   275 013D:00FC   276 013D:00FF
   282 013D:0100   283 013D:0102   284 013D:0104   285 013D:0108
   286 013D:010B   292 013D:010E   293 013D:0110   294 013D:0113
   299 013D:0114   300 013D:0116   301 013D:0119   306 013D:011A
   307 013D:011C   308 013D:011F   313 013D:0120   314 013D:0122
   315 013D:0125   320 013D:0126   321 013D:0128   322 013D:012B
   329 013D:012C   330 013D:012E   331 013D:0131   332 013D:0133
   337 013D:0134   338 013D:0136   339 013D:0139   347 013D:013A
   348 013D:013C   349 013D:013E   350 013D:0142   351 013D:0145
   352 013D:0147   358 013D:014A   359 013D:014C   360 013D:014E
   361 013D:0152   362 013D:0155   369 013D:0158   370 013D:015A
   371 013D:015C   372 013D:0160   373 013D:0164   374 013D:0167
   380 013D:016A   381 013D:016C   382 013D:016E   383 013D:0172
   384 013D:0175   385 013D:0177   391 013D:017A   392 013D:017C
   393 013D:017E   394 013D:0182   395 013D:0185   401 013D:0188
   402 013D:018A   403 013D:018C   404 013D:0190   405 013D:0193
   406 013D:0195   412 013D:0198   413 013D:019A   414 013D:019C
   415 013D:01A0   416 013D:01A3   417 013D:01A5   423 013D:01A8
   424 013D:01AA   425 013D:01AC   426 013D:01B0   427 013D:01B3
   428 013D:01B5   435 013D:01B8   436 013D:01BA   437 013D:01BC
   438 013D:01C0   439 013D:01C3   440 013D:01C5   446 013D:01C8
   447 013D:01CA   448 013D:01CC   449 013D:01D0   450 013D:01D3
   457 013D:01D6   458 013D:01D8   459 013D:01DA   460 013D:01DE
   461 013D:01E2   462 013D:01E5   467 013D:01E8   468 013D:01EA
   469 013D:01ED   470 013D:01F2   471 013D:01F9   472 013D:01FF
   473 013D:0203   474 013D:0207   475 013D:020C   476 013D:020E
   477 013D:020F   478 013D:0211   479 013D:0214   480 013D:0216
   482 013D:0219   484 013D:0220   486 013D:0225   496 013D:0226
   497 013D:0228   498 013D:022D   499 013D:0233   500 013D:0237
   501 013D:023C   502 013D:0240   503 013D:0245   504 013D:024A
   505 013D:0250   506 013D:0255   507 013D:025B   508 013D:025D
   509 013D:025E   510 013D:025F   511 013D:0260   512 013D:0263
   513 013D:0266   514 013D:0267   519 013D:026A   520 013D:026F
   521 013D:0276   522 013D:027C   523 013D:0280   524 013D:0284
   525 013D:028A   526 013D:028C   527 013D:028E   528 013D:028F
   529 013D:0293   530 013D:0298   531 013D:029B   533 013D:029F
   534 013D:02A3   536 013D:02A9   541 013D:02AA   542 013D:02AB
   543 013D:02AE   544 013D:02B1   545 013D:02B3   546 013D:02B7
   547 013D:02B8   552 013D:02B9   553 013D:02BC   554 013D:02C1
   555 013D:02C3   560 013D:02C4   561 013D:02C5   562 013D:02C8
   563 013D:02CD   564 013D:02D0   565 013D:02D3   566 013D:02D6
   567 013D:02D8   568 013D:02D9   569 013D:02DC   570 013D:02E1
   571 013D:02E6   577 013D:02E7   578 013D:02EA   579 013D:02EC
   580 013D:02EF   581 013D:02F3   582 013D:02F5   583 013D:02F9
   584 013D:02FB   586 013D:02FF   587 013D:0300   589 013D:0301
   590 013D:0303   591 013D:0304   596 013D:0305   597 013D:0307
   598 013D:030A   599 013D:030D   600 013D:030F   601 013D:0312
   602 013D:0316   603 013D:0318   604 013D:031A   605 013D:031B
   607 013D:031C   608 013D:031D   613 013D:031E   614 013D:0323
   615 013D:0326   616 013D:032A   617 013D:032F   618 013D:0332
   622 013D:0336   623 013D:033B   625 013D:033E   626 013D:0342
   627 013D:0346   632 013D:0347   633 013D:0349   634 013D:034B
   635 013D:034E   636 013D:0352   637 013D:0354   638 013D:0357
   639 013D:0358   640 013D:0359   641 013D:035C   642 013D:035E
   643 013D:0361   644 013D:0364   645 013D:0367   646 013D:0368
   647 013D:036D   652 013D:036E   653 013D:0370   654 013D:0372
   655 013D:0376   660 013D:0377   661 013D:0379   662 013D:037B
   663 013D:037F   668 013D:0380   669 013D:0382   670 013D:0384
   671 013D:0387   676 013D:0388   677 013D:038A   678 013D:038C
   679 013D:038E   680 013D:0392   686 013D:0393   687 013D:0395
   688 013D:039A   689 013D:039E   690 013D:03A0   691 013D:03A2
   692 013D:03A6   694 013D:03A8   699 013D:03AB   700 013D:03AD
   701 013D:03AF   702 013D:03B1   703 013D:03B5   708 013D:03B6
   709 013D:03B9   710 013D:03BE   711 013D:03C2   712 013D:03C5
   713 013D:03C8   714 013D:03CB   715 013D:03CF   716 013D:03D2
   717 013D:03D5   718 013D:03DA   719 013D:03DC   721 013D:03DE
   726 013D:03DF   727 013D:03E1   728 013D:03E5   729 013D:03E7
   734 013D:03E8   735 013D:03EA   736 013D:03EE   737 013D:03F0
   743 013D:03F1   744 013D:03F3   745 013D:03F5   746 013D:03F9
   747 013D:03FD   748 013D:03FF   754 013D:0402   755 013D:0404
   756 013D:0406   757 013D:040A   758 013D:040E   759 013D:0410
   767 013D:0413   768 013D:0415   769 013D:0417   770 013D:041B
   771 013D:041F   772 013D:0423   773 013D:0427   779 013D:042A
   780 013D:042C   781 013D:042E   782 013D:0432   783 013D:0436
   789 013D:0439   790 013D:043B   791 013D:043F   792 013D:0443
   793 013D:0446   794 013D:0448   795 013D:044A   796 013D:044E
   797 013D:0450   804 013D:0453   805 013D:0455   806 013D:0457
   807 013D:045B   808 013D:045F   809 013D:0463   815 013D:0466
   816 013D:0468   817 013D:046A   818 013D:046C   819 013D:0470
   820 013D:0474   827 013D:0477   828 013D:0479   829 013D:047B
   830 013D:047D   831 013D:0481   832 013D:0485   833 013D:0489
   840 013D:048C   841 013D:048E   842 013D:0490   843 013D:0492
   844 013D:0496   845 013D:049A   846 013D:049E   853 013D:04A1
   854 013D:04A3   855 013D:04A5   856 013D:04A7   857 013D:04AB
   858 013D:04AF   859 013D:04B3   865 013D:04B6   866 013D:04B8
   867 013D:04B9   868 013D:04BB   869 013D:04BD   870 013D:04C1
   871 013D:04C2   872 013D:04C5   873 013D:04C7   874 013D:04C8
   875 013D:04CF   876 013D:04D5   877 013D:04D9   878 013D:04DD
   879 013D:04E3   880 013D:04E5   881 013D:04E6   882 013D:04EA
   883 013D:04EF   884 013D:04F2   885 013D:04F6   886 013D:04F9
   888 013D:04FD   889 013D:0501   891 013D:0507   893 013D:050A
   894 013D:050C   906 013D:050F   907 013D:0511   908 013D:0516
   909 013D:051B   910 013D:051F   911 013D:0523   912 013D:0527
   913 013D:052B   914 013D:0530   915 013D:0535   916 013D:0539
   917 013D:053D   918 013D:0541   919 013D:0545   920 013D:054A
   921 013D:054F   922 013D:0550   923 013D:0552   924 013D:0554
   925 013D:0557   926 013D:055A   927 013D:055E   928 013D:055F
   933 013D:0562   934 013D:0564   935 013D:0568   940 013D:0569
   941 013D:056B   942 013D:056D   943 013D:0571   944 013D:0573
   950 013D:0574   951 013D:0576   952 013D:0578   953 013D:057A
   954 013D:057E   955 013D:0582   956 013D:0584   965 013D:0587
   966 013D:0589   967 013D:058B   968 013D:058F   969 013D:0593
   970 013D:0597   971 013D:059B   972 013D:059F   978 013D:05A2
   979 013D:05A7   980 013D:05AD   981 013D:05B1   982 013D:05B6
   984 013D:05B9   985 013D:05C0   986 013D:05C7   987 013D:05CD
   989 013D:05D2   994 013D:05D3   995 013D:05D8   996 013D:05DE
   997 013D:05E2   998 013D:05E7  1000 013D:05EA  1001 013D:05F1
  1002 013D:05F8  1003 013D:05FE  1005 013D:0603  1010 013D:0604
  1011 013D:0606  1012 013D:0609  1013 013D:060B  1019 013D:060C
  1020 013D:060E  1021 013D:0612  1022 013D:0615  1027 013D:0616
  1028 013D:0618  1029 013D:061A  1030 013D:061D  1036 013D:061E
  1037 013D:0620  1038 013D:0622  1039 013D:0626  1040 013D:0629
  1045 013D:062C  1046 013D:062E  1047 013D:0631  1052 013D:0632
  1053 013D:0634  1054 013D:0637  1059 013D:0638  1060 013D:063A
  1061 013D:063D  1067 013D:063E  1068 013D:0640  1069 013D:0642
  1070 013D:0646  1071 013D:0649  1076 013D:064C  1077 013D:064E
  1078 013D:0651  1083 013D:0652  1084 013D:0655  1085 013D:0658
  1086 013D:065B  1087 013D:065E  1088 013D:0660  1089 013D:0664
  1090 013D:0668  1091 013D:066A  1093 013D:066D  1095 013D:066F
  1100 013D:0670  1101 013D:0673  1102 013D:0676  1103 013D:0679
  1104 013D:067C  1105 013D:067E  1106 013D:0680  1107 013D:0684
  1108 013D:0688  1110 013D:068A  1118 013D:068B  1119 013D:068D
  1120 013D:068E  1121 013D:0691  1122 013D:0695  1123 013D:0699
  1124 013D:069E  1125 013D:06A1  1126 013D:06A2  1132 013D:06A5
  1133 013D:06A7  1134 013D:06AA  1135 013D:06AE  1136 013D:06B1
  1143 013D:06B4  1144 013D:06B6  1145 013D:06B9  1146 013D:06BD
  1147 013D:06C1  1148 013D:06C4  1155 013D:06C7  1156 013D:06C9
  1157 013D:06CC  1158 013D:06D0  1159 013D:06D4  1160 013D:06D7
  1161 013D:06D9  1170 013D:06DC  1171 013D:06DE  1172 013D:06E2
  1173 013D:06E6  1174 013D:06EA  1175 013D:06EC  1176 013D:06EF
  1177 013D:06F2  1182 013D:06F5  1183 013D:06F8  1184 013D:06FB
  1185 013D:06FD  1186 013D:06FF  1192 013D:0700  1193 013D:0702
  1194 013D:0705  1195 013D:0709  1196 013D:070C  1202 013D:070F
  1203 013D:0711  1204 013D:0714  1205 013D:0718  1206 013D:071B
  1212 013D:071E  1213 013D:0720  1214 013D:0723  1215 013D:0727
  1216 013D:072A  1222 013D:072D  1223 013D:072F  1224 013D:0732
  1225 013D:0736  1226 013D:0739  1231 013D:073C  1232 013D:073F
  1233 013D:0742  1234 013D:0744  1240 013D:0745  1241 013D:0747
  1242 013D:074A  1243 013D:074D  1244 013D:0751  1245 013D:0754
  1246 013D:0758  1247 013D:075C  1253 013D:075F  1254 013D:0761
  1255 013D:0764  1256 013D:0767  1261 013D:076A  1262 013D:076D
  1263 013D:0770  1264 013D:0772  1265 013D:0774

Line numbers for TSystem(TSYSTEM.PAS) segment TSystem

   231 01B5:0000   276 01B5:0001   277 01B5:000B   278 01B5:0011
   283 01B5:001A   284 01B5:0029   285 01B5:0058   290 01B5:0065
   291 01B5:0074   292 01B5:00A3   294 01B5:00CA   295 01B5:00D9
   296 01B5:0124   297 01B5:014E   298 01B5:0178   299 01B5:01A1
   300 01B5:01BB   301 01B5:01C3   302 01B5:01D3   303 01B5:01FC
   304 01B5:020C   305 01B5:0212   309 01B5:023F   310 01B5:0249
   311 01B5:024C   313 01B5:0253   314 01B5:026E   316 01B5:0276
   317 01B5:0279   318 01B5:027C   319 01B5:027F   320 01B5:0282
   321 01B5:0291   324 01B5:0293   325 01B5:029D   326 01B5:02A0

Line numbers for TSystem(TSYSTEM.ASM) segment TSystem

    70 01B5:02C5    71 01B5:02C7    72 01B5:02CB    73 01B5:02CF
    74 01B5:02D0    75 01B5:02D5    76 01B5:02D8    85 01B5:02DB
    86 01B5:02DD    87 01B5:02E1    88 01B5:02E5    89 01B5:02E9
    90 01B5:02ED    91 01B5:02F1    92 01B5:02F3    93 01B5:02F4
    94 01B5:02F7    95 01B5:02F9    96 01B5:02FB   105 01B5:02FE
   106 01B5:0300   107 01B5:0304   108 01B5:0308   109 01B5:030C
   110 01B5:030E   111 01B5:030F   112 01B5:0313   113 01B5:0314
   114 01B5:0315   115 01B5:0316   116 01B5:0319   117 01B5:031C
   118 01B5:031D   119 01B5:0320   120 01B5:0322   130 01B5:0325
   131 01B5:0327   132 01B5:0328   133 01B5:032C   134 01B5:0330
   135 01B5:0334   136 01B5:0338   137 01B5:0339   139 01B5:033B
   140 01B5:033D   141 01B5:0340   142 01B5:0344   143 01B5:0347
   144 01B5:034A   145 01B5:034C   146 01B5:034F   147 01B5:0351
   148 01B5:0355   149 01B5:0356   151 01B5:0358   152 01B5:0359
   162 01B5:035C   163 01B5:035E   164 01B5:035F   165 01B5:0363
   166 01B5:0367   167 01B5:036B   168 01B5:036C   169 01B5:036D
   170 01B5:0370   171 01B5:0373   172 01B5:0374   173 01B5:0377
   174 01B5:0379   175 01B5:037A   183 01B5:037D   184 01B5:037F
   185 01B5:0380   186 01B5:0384   187 01B5:0388   188 01B5:038B
   189 01B5:038D   190 01B5:038E   191 01B5:038F   199 01B5:0392
   200 01B5:0394   201 01B5:0395   202 01B5:0399   203 01B5:039D
   204 01B5:03A0   205 01B5:03A2   206 01B5:03A3   207 01B5:03A4
   215 01B5:03A7   216 01B5:03A9   217 01B5:03AA   218 01B5:03AE
   219 01B5:03B2   220 01B5:03B6   221 01B5:03B9   222 01B5:03BB
   223 01B5:03BC   232 01B5:03BF   233 01B5:03C1   234 01B5:03C2
   235 01B5:03C6   236 01B5:03C8   237 01B5:03CC   238 01B5:03D0
   239 01B5:03D1   240 01B5:03D3   241 01B5:03D5   243 01B5:03D6
   244 01B5:03D9   245 01B5:03DB   246 01B5:03DE   247 01B5:03E1
   248 01B5:03E4   249 01B5:03E6   250 01B5:03E7   252 01B5:03EB
   253 01B5:03ED   254 01B5:03F0   256 01B5:03F2   257 01B5:03F3
   267 01B5:03F6   268 01B5:03F8   269 01B5:03F9   270 01B5:03FD
   271 01B5:03FF   272 01B5:0403   273 01B5:0407   274 01B5:0409
   275 01B5:040D   276 01B5:0411   277 01B5:0412   278 01B5:0413
   280 01B5:0415   281 01B5:0417   282 01B5:041B   283 01B5:041D
   284 01B5:0421   285 01B5:0422   286 01B5:0423   287 01B5:0424
   288 01B5:0426   289 01B5:0428   290 01B5:0429   291 01B5:042A
   292 01B5:042B   294 01B5:042D   295 01B5:042E   296 01B5:0430
   297 01B5:0432   298 01B5:0434   300 01B5:0437   301 01B5:043A
   303 01B5:043D   304 01B5:043E   311 01B5:0441   312 01B5:0443
   313 01B5:0447   314 01B5:044A   321 01B5:044D   322 01B5:044F
   323 01B5:0453   324 01B5:0456   331 01B5:0459   332 01B5:045B
   333 01B5:045F   334 01B5:0462   335 01B5:0466   343 01B5:0469
   344 01B5:046B   345 01B5:046F   346 01B5:0473   347 01B5:0474
   355 01B5:0477   356 01B5:0479   357 01B5:047D   358 01B5:0481
   359 01B5:0482   367 01B5:0485   368 01B5:0487   369 01B5:048C
   370 01B5:0490   371 01B5:0492   378 01B5:0495   379 01B5:0497
   380 01B5:049B   381 01B5:049C   389 01B5:049F   390 01B5:04A1
   391 01B5:04A5   392 01B5:04A9   393 01B5:04AA   401 01B5:04AD
   402 01B5:04AF   403 01B5:04B3   404 01B5:04B4   405 01B5:04B5
   406 01B5:04B6   415 01B5:04B9   416 01B5:04BB   417 01B5:04BF
   418 01B5:04C3   419 01B5:04C7   420 01B5:04C8   426 01B5:04CB
   427 01B5:04CC   428 01B5:04CE   429 01B5:04D0   430 01B5:04D2
   431 01B5:04D4   432 01B5:04D6   433 01B5:04D8   434 01B5:04DA
   435 01B5:04DB   436 01B5:04DE   442 01B5:04DF   443 01B5:04E1
   444 01B5:04E3   445 01B5:04E7   446 01B5:04EB   453 01B5:04EC
   454 01B5:04EE   455 01B5:04EF   456 01B5:04F3   457 01B5:04F7
   458 01B5:04F8   459 01B5:04F9   460 01B5:04FB   461 01B5:04FD
   462 01B5:04FF   463 01B5:0502   464 01B5:0503   471 01B5:0506
   472 01B5:0508   473 01B5:0509   474 01B5:050D   475 01B5:0511
   476 01B5:0512   477 01B5:0513   478 01B5:0515   479 01B5:0517
   480 01B5:0519   481 01B5:051C   482 01B5:051D   489 01B5:0520
   490 01B5:0522   491 01B5:0523   492 01B5:0527   493 01B5:052B
   494 01B5:052C   495 01B5:052D   496 01B5:052F   497 01B5:0531
   498 01B5:0533   499 01B5:0536   500 01B5:053A   501 01B5:053B
   509 01B5:053E   510 01B5:0540   511 01B5:0541   512 01B5:0545
   513 01B5:0549   514 01B5:054A   515 01B5:054B   516 01B5:054D
   517 01B5:054F   518 01B5:0551   519 01B5:0555   520 01B5:0557
   521 01B5:0558   529 01B5:055B   530 01B5:055D   531 01B5:055E
   532 01B5:0562   533 01B5:0566   534 01B5:0567   535 01B5:0568
   536 01B5:056A   537 01B5:056C   538 01B5:056E   539 01B5:0572
   540 01B5:0574   541 01B5:0575   549 01B5:0578   550 01B5:057A
   551 01B5:057B   552 01B5:057F   553 01B5:0583   554 01B5:0584
   555 01B5:0585   556 01B5:0587   557 01B5:0589   558 01B5:058B
   559 01B5:0590   560 01B5:0593   561 01B5:0594   569 01B5:0597
   570 01B5:0599   571 01B5:059B   572 01B5:059F   573 01B5:05A1
   574 01B5:05A5   575 01B5:05A9   576 01B5:05AA   577 01B5:05AC
   578 01B5:05AF   579 01B5:05B1   580 01B5:05B5   581 01B5:05B6
   582 01B5:05B8   584 01B5:05BA   585 01B5:05BC   592 01B5:05BF
   593 01B5:05C1   594 01B5:05C5   595 01B5:05C9   596 01B5:05CB
   597 01B5:05CD   608 01B5:05D0   609 01B5:05D3   611 01B5:05D4
   612 01B5:05D5   613 01B5:05D7   614 01B5:05D9   615 01B5:05DA
   616 01B5:05DC   617 01B5:05DE   618 01B5:05DF   619 01B5:05E1
   621 01B5:05E3   622 01B5:05E4   628 01B5:05E6   629 01B5:05E9
   630 01B5:05EB   631 01B5:05F1   632 01B5:05F4   633 01B5:05F6
   639 01B5:05F7   640 01B5:05FA   641 01B5:05FC   642 01B5:0602
   643 01B5:0605   644 01B5:0607   650 01B5:0608   651 01B5:0609
   652 01B5:060A   653 01B5:060B   654 01B5:060C   655 01B5:060F
   656 01B5:0612   657 01B5:0613   658 01B5:0614   659 01B5:0615
   660 01B5:0616   661 01B5:0617   662 01B5:0618   663 01B5:061B
   664 01B5:061E   665 01B5:0622   666 01B5:0624   668 01B5:0627
   669 01B5:0629   670 01B5:062D   671 01B5:062F   673 01B5:0632
   674 01B5:0634   675 01B5:0636   676 01B5:0638   677 01B5:063B
   678 01B5:063C   679 01B5:0642   680 01B5:0644   681 01B5:0646
   682 01B5:0648   683 01B5:064A   684 01B5:064C   685 01B5:064D
   686 01B5:0653   687 01B5:065A   688 01B5:065D   689 01B5:0661
   690 01B5:0663   692 01B5:0666   693 01B5:0667   694 01B5:0669
   695 01B5:066B   696 01B5:066D   697 01B5:0673   698 01B5:0675
   699 01B5:0677   700 01B5:0679   701 01B5:067B   702 01B5:067D
   703 01B5:067E   704 01B5:0684   705 01B5:068B   706 01B5:068E
   707 01B5:0692   708 01B5:0694   710 01B5:0697   711 01B5:069C
   713 01B5:06A4   714 01B5:06AA   715 01B5:06AE   716 01B5:06AF
   717 01B5:06B2   718 01B5:06B4   719 01B5:06B6   721 01B5:06BE
   722 01B5:06BF   723 01B5:06C2   724 01B5:06C4   725 01B5:06C7
   726 01B5:06C9   727 01B5:06CC   728 01B5:06CE   730 01B5:06CF
   731 01B5:06D2   736 01B5:06D3   737 01B5:06D4   738 01B5:06D5
   739 01B5:06D6   740 01B5:06D8   741 01B5:06DA   742 01B5:06DB
   743 01B5:06DF   744 01B5:06E4   745 01B5:06EB   746 01B5:06F2
   747 01B5:06F3   748 01B5:06F8   749 01B5:06FC   750 01B5:06FD
   751 01B5:06FE   752 01B5:06FF   756 01B5:0700   757 01B5:0701
   758 01B5:0702   759 01B5:0703   760 01B5:0708   761 01B5:070D
   762 01B5:070E   763 01B5:0710   764 01B5:0712   765 01B5:0713
   766 01B5:0718   767 01B5:071D   768 01B5:071E   769 01B5:071F
   770 01B5:0720   771 01B5:0721   772 01B5:0722   776 01B5:0723
   777 01B5:0724   778 01B5:0725   779 01B5:0729   780 01B5:072B
   781 01B5:072E   782 01B5:072F   783 01B5:0730   788 01B5:0731
   789 01B5:0732   790 01B5:0733   791 01B5:0734   792 01B5:0736
   793 01B5:0738   794 01B5:0739   795 01B5:073B   796 01B5:073F
   797 01B5:0743   798 01B5:0745   799 01B5:0747   800 01B5:074B
   801 01B5:0750   802 01B5:0757   803 01B5:075E   804 01B5:075F
   805 01B5:0764   806 01B5:0768   807 01B5:0769   808 01B5:076A
   809 01B5:076B   813 01B5:076C   814 01B5:076D   815 01B5:076E
   816 01B5:076F   817 01B5:0774   818 01B5:0779   819 01B5:077A
   820 01B5:077C   821 01B5:077E   822 01B5:077F   823 01B5:0784
   824 01B5:0789   825 01B5:078B   826 01B5:0790   827 01B5:0794
   828 01B5:0797   829 01B5:0799   830 01B5:079B   831 01B5:079C
   832 01B5:079D   833 01B5:079E   834 01B5:079F   835 01B5:07A0
   843 01B5:07A1   844 01B5:07A2   845 01B5:07A3   846 01B5:07A6
   847 01B5:07A8   848 01B5:07AA   849 01B5:07AC   850 01B5:07AF
   851 01B5:07B1   852 01B5:07B3   853 01B5:07B5   854 01B5:07B9
   855 01B5:07BB   856 01B5:07BD   857 01B5:07C1   858 01B5:07C3
   859 01B5:07C7   860 01B5:07C8   861 01B5:07CA   862 01B5:07CC
   863 01B5:07D0   864 01B5:07D2   865 01B5:07D6   866 01B5:07D8
   867 01B5:07DA   868 01B5:07DC   869 01B5:07DF   871 01B5:07E2
   873 01B5:07E5   874 01B5:07E7   875 01B5:07E9   876 01B5:07EB
   877 01B5:07ED   878 01B5:07EF   879 01B5:07F1   880 01B5:07F3
   881 01B5:07F5   882 01B5:07F7   883 01B5:07F9   884 01B5:07FB
   885 01B5:07FD   886 01B5:07FF   887 01B5:0801   888 01B5:0803
   889 01B5:0804   891 01B5:0806   892 01B5:0808   893 01B5:080C
   894 01B5:080E   895 01B5:0810   896 01B5:0812   897 01B5:0814
   899 01B5:0815   900 01B5:0817   901 01B5:0819   902 01B5:081D
   903 01B5:081F   904 01B5:0823   905 01B5:0825   906 01B5:0827
   907 01B5:0829   908 01B5:082C   909 01B5:082E   910 01B5:0830
   911 01B5:0832   912 01B5:0834   913 01B5:0839   915 01B5:083D
   916 01B5:0841   917 01B5:0843   918 01B5:0845   919 01B5:0847
   920 01B5:0849   921 01B5:084B   923 01B5:084D   924 01B5:084E
   925 01B5:084F   926 01B5:0852

Program entry point at 0000:000C
