
 Start  Stop   Length Name               Class

 00000H 0027FH 00280H PROGRAM            CODE
 00280H 002B5H 00036H TDisk              CODE
 002C0H 002CBH 0000CH TStrings           CODE
 002D0H 00B22H 00853H TSystem            CODE
 00B30H 0177BH 00C4CH System             CODE
 01780H 01AFFH 00380H DATA               DATA
 01B00H 05AFFH 04000H STACK              STACK
 05B00H 05B00H 00000H HEAP               HEAP

  Address         Publics by Value

 0000:0000       CharsToString
 0000:00C6       MainPart
 0000:0257       @
 0028:0027       @
 002C:0000       @
 002D:0000       DoNone
 002D:0293       @
 002D:02C5       FillDword
 002D:02DB       FillWord
 002D:02FE       FillByte
 002D:0325       Fill
 002D:035C       MovePtr
 002D:037D       SwapByte
 002D:0392       SwapWord
 002D:03A7       SwapLong
 002D:03BF       Swap
 002D:03F6       SearchPtr
 002D:0441       ReadMemoryByte
 002D:044D       ReadMemoryWord
 002D:0459       ReadMemoryDword
 002D:0469       WriteMemoryByte
 002D:0477       WriteMemoryWord
 002D:0485       WriteMemoryDword
 002D:0495       ReadPort
 002D:049F       WritePort
 002D:04AD       ReadIndexPort
 002D:04B9       WriteIndexPort
 002D:04EC       AbsReadMemoryByte
 002D:0506       AbsReadMemoryWord
 002D:0520       AbsReadMemoryDword
 002D:053E       AbsWriteMemoryByte
 002D:055B       AbsWriteMemoryWord
 002D:0578       AbsWriteMemoryDword
 002D:0597       CompareBuffersPtr
 002D:05BF       Delay
 002D:05D0       HardwareReboot
 002D:05E6       WarmReboot
 002D:05F7       ColdReboot
 0178:0002       lcCpuTypes
 0178:0032       lcBiosTypes
 0178:00A4       lcsBios
 0178:00AE       CpuType
 0178:00B0       CpuSpeed
 0178:00B2       CpuIDValid
 0178:00B3       BiosType
 0178:00B4       ExtendedMemorySize
 0178:00B6       CpuVendor
 0178:00C2       OvrCodeList
 0178:00C4       OvrHeapSize
 0178:00C6       OvrDebugPtr
 0178:00CA       OvrHeapOrg
 0178:00CC       OvrHeapPtr
 0178:00CE       OvrHeapEnd
 0178:00D0       OvrLoadList
 0178:00D2       OvrDosHandle
 0178:00D4       OvrEmsHandle
 0178:00D6       HeapOrg
 0178:00DA       HeapPtr
 0178:00DE       HeapEnd
 0178:00E2       FreeList
 0178:00E6       FreeZero
 0178:00EA       HeapError
 0178:00EE       ExitProc
 0178:00F2       ExitCode
 0178:00F4       ErrorAddr
 0178:00F8       PrefixSeg
 0178:00FA       StackLimit
 0178:00FC       InOutRes
 0178:00FE       RandSeed
 0178:0102       SelectorInc
 0178:0104       Seg0040
 0178:0106       SegA000
 0178:0108       SegB000
 0178:010A       SegB800
 0178:010C       Test8086
 0178:010D       Test8087
 0178:010E       FileMode
 0178:011E       DiskResult
 0178:012C       SelfAddr
 0178:0130       BiosConfigTable
 0178:0134       Input
 0178:0234       Output
 0178:0334       SaveInt00
 0178:0338       SaveInt02
 0178:033C       SaveInt1B
 0178:0340       SaveInt21
 0178:0344       SaveInt23
 0178:0348       SaveInt24
 0178:034C       SaveInt34
 0178:0350       SaveInt35
 0178:0354       SaveInt36
 0178:0358       SaveInt37
 0178:035C       SaveInt38
 0178:0360       SaveInt39
 0178:0364       SaveInt3A
 0178:0368       SaveInt3B
 0178:036C       SaveInt3C
 0178:0370       SaveInt3D
 0178:0374       SaveInt3E
 0178:0378       SaveInt3F
 0178:037C       SaveInt75

Line numbers for PROGRAM(SYSTEST.PAS) segment PROGRAM

    29 0000:0000    30 0000:000F    31 0000:0022    32 0000:0027
    34 0000:003E    35 0000:0051    39 0000:00C6    40 0000:00D5
    41 0000:0109    42 0000:013E    43 0000:0164    44 0000:0196
    45 0000:01EB    46 0000:0220    47 0000:0255    71 0000:0257
    72 0000:0275    74 0000:0278

Line numbers for TDisk(TDISK.PAS) segment TDisk

   125 0028:0000   126 0028:000A   127 0028:0018   128 0028:0025
   130 0028:0027   131 0028:0031   132 0028:0034

Line numbers for TStrings(TSTRINGS.PAS) segment TStrings

   196 002C:0000   197 002C:000A

Line numbers for TSystem(TSYSTEM.PAS) segment TSystem

   231 002D:0000   276 002D:0001   277 002D:000B   278 002D:0011
   283 002D:001A   284 002D:0029   285 002D:0058   290 002D:0065
   291 002D:0074   292 002D:00A3   294 002D:00CA   295 002D:00D9
   296 002D:0124   297 002D:014E   298 002D:0178   299 002D:01A1
   300 002D:01BB   301 002D:01C3   302 002D:01D3   303 002D:01FC
   304 002D:020C   305 002D:0212   309 002D:023F   310 002D:0249
   311 002D:024C   313 002D:0253   314 002D:026E   316 002D:0276
   317 002D:0279   318 002D:027C   319 002D:027F   320 002D:0282
   321 002D:0291   324 002D:0293   325 002D:029D   326 002D:02A0

Line numbers for TSystem(TSYSTEM.ASM) segment TSystem

    70 002D:02C5    71 002D:02C7    72 002D:02CB    73 002D:02CF
    74 002D:02D0    75 002D:02D5    76 002D:02D8    85 002D:02DB
    86 002D:02DD    87 002D:02E1    88 002D:02E5    89 002D:02E9
    90 002D:02ED    91 002D:02F1    92 002D:02F3    93 002D:02F4
    94 002D:02F7    95 002D:02F9    96 002D:02FB   105 002D:02FE
   106 002D:0300   107 002D:0304   108 002D:0308   109 002D:030C
   110 002D:030E   111 002D:030F   112 002D:0313   113 002D:0314
   114 002D:0315   115 002D:0316   116 002D:0319   117 002D:031C
   118 002D:031D   119 002D:0320   120 002D:0322   130 002D:0325
   131 002D:0327   132 002D:0328   133 002D:032C   134 002D:0330
   135 002D:0334   136 002D:0338   137 002D:0339   139 002D:033B
   140 002D:033D   141 002D:0340   142 002D:0344   143 002D:0347
   144 002D:034A   145 002D:034C   146 002D:034F   147 002D:0351
   148 002D:0355   149 002D:0356   151 002D:0358   152 002D:0359
   162 002D:035C   163 002D:035E   164 002D:035F   165 002D:0363
   166 002D:0367   167 002D:036B   168 002D:036C   169 002D:036D
   170 002D:0370   171 002D:0373   172 002D:0374   173 002D:0377
   174 002D:0379   175 002D:037A   183 002D:037D   184 002D:037F
   185 002D:0380   186 002D:0384   187 002D:0388   188 002D:038B
   189 002D:038D   190 002D:038E   191 002D:038F   199 002D:0392
   200 002D:0394   201 002D:0395   202 002D:0399   203 002D:039D
   204 002D:03A0   205 002D:03A2   206 002D:03A3   207 002D:03A4
   215 002D:03A7   216 002D:03A9   217 002D:03AA   218 002D:03AE
   219 002D:03B2   220 002D:03B6   221 002D:03B9   222 002D:03BB
   223 002D:03BC   232 002D:03BF   233 002D:03C1   234 002D:03C2
   235 002D:03C6   236 002D:03C8   237 002D:03CC   238 002D:03D0
   239 002D:03D1   240 002D:03D3   241 002D:03D5   243 002D:03D6
   244 002D:03D9   245 002D:03DB   246 002D:03DE   247 002D:03E1
   248 002D:03E4   249 002D:03E6   250 002D:03E7   252 002D:03EB
   253 002D:03ED   254 002D:03F0   256 002D:03F2   257 002D:03F3
   267 002D:03F6   268 002D:03F8   269 002D:03F9   270 002D:03FD
   271 002D:03FF   272 002D:0403   273 002D:0407   274 002D:0409
   275 002D:040D   276 002D:0411   277 002D:0412   278 002D:0413
   280 002D:0415   281 002D:0417   282 002D:041B   283 002D:041D
   284 002D:0421   285 002D:0422   286 002D:0423   287 002D:0424
   288 002D:0426   289 002D:0428   290 002D:0429   291 002D:042A
   292 002D:042B   294 002D:042D   295 002D:042E   296 002D:0430
   297 002D:0432   298 002D:0434   300 002D:0437   301 002D:043A
   303 002D:043D   304 002D:043E   311 002D:0441   312 002D:0443
   313 002D:0447   314 002D:044A   321 002D:044D   322 002D:044F
   323 002D:0453   324 002D:0456   331 002D:0459   332 002D:045B
   333 002D:045F   334 002D:0462   335 002D:0466   343 002D:0469
   344 002D:046B   345 002D:046F   346 002D:0473   347 002D:0474
   355 002D:0477   356 002D:0479   357 002D:047D   358 002D:0481
   359 002D:0482   367 002D:0485   368 002D:0487   369 002D:048C
   370 002D:0490   371 002D:0492   378 002D:0495   379 002D:0497
   380 002D:049B   381 002D:049C   389 002D:049F   390 002D:04A1
   391 002D:04A5   392 002D:04A9   393 002D:04AA   401 002D:04AD
   402 002D:04AF   403 002D:04B3   404 002D:04B4   405 002D:04B5
   406 002D:04B6   415 002D:04B9   416 002D:04BB   417 002D:04BF
   418 002D:04C3   419 002D:04C7   420 002D:04C8   426 002D:04CB
   427 002D:04CC   428 002D:04CE   429 002D:04D0   430 002D:04D2
   431 002D:04D4   432 002D:04D6   433 002D:04D8   434 002D:04DA
   435 002D:04DB   436 002D:04DE   442 002D:04DF   443 002D:04E1
   444 002D:04E3   445 002D:04E7   446 002D:04EB   453 002D:04EC
   454 002D:04EE   455 002D:04EF   456 002D:04F3   457 002D:04F7
   458 002D:04F8   459 002D:04F9   460 002D:04FB   461 002D:04FD
   462 002D:04FF   463 002D:0502   464 002D:0503   471 002D:0506
   472 002D:0508   473 002D:0509   474 002D:050D   475 002D:0511
   476 002D:0512   477 002D:0513   478 002D:0515   479 002D:0517
   480 002D:0519   481 002D:051C   482 002D:051D   489 002D:0520
   490 002D:0522   491 002D:0523   492 002D:0527   493 002D:052B
   494 002D:052C   495 002D:052D   496 002D:052F   497 002D:0531
   498 002D:0533   499 002D:0536   500 002D:053A   501 002D:053B
   509 002D:053E   510 002D:0540   511 002D:0541   512 002D:0545
   513 002D:0549   514 002D:054A   515 002D:054B   516 002D:054D
   517 002D:054F   518 002D:0551   519 002D:0555   520 002D:0557
   521 002D:0558   529 002D:055B   530 002D:055D   531 002D:055E
   532 002D:0562   533 002D:0566   534 002D:0567   535 002D:0568
   536 002D:056A   537 002D:056C   538 002D:056E   539 002D:0572
   540 002D:0574   541 002D:0575   549 002D:0578   550 002D:057A
   551 002D:057B   552 002D:057F   553 002D:0583   554 002D:0584
   555 002D:0585   556 002D:0587   557 002D:0589   558 002D:058B
   559 002D:0590   560 002D:0593   561 002D:0594   569 002D:0597
   570 002D:0599   571 002D:059B   572 002D:059F   573 002D:05A1
   574 002D:05A5   575 002D:05A9   576 002D:05AA   577 002D:05AC
   578 002D:05AF   579 002D:05B1   580 002D:05B5   581 002D:05B6
   582 002D:05B8   584 002D:05BA   585 002D:05BC   592 002D:05BF
   593 002D:05C1   594 002D:05C5   595 002D:05C9   596 002D:05CB
   597 002D:05CD   608 002D:05D0   609 002D:05D3   611 002D:05D4
   612 002D:05D5   613 002D:05D7   614 002D:05D9   615 002D:05DA
   616 002D:05DC   617 002D:05DE   618 002D:05DF   619 002D:05E1
   621 002D:05E3   622 002D:05E4   628 002D:05E6   629 002D:05E9
   630 002D:05EB   631 002D:05F1   632 002D:05F4   633 002D:05F6
   639 002D:05F7   640 002D:05FA   641 002D:05FC   642 002D:0602
   643 002D:0605   644 002D:0607   650 002D:0608   651 002D:0609
   652 002D:060A   653 002D:060B   654 002D:060C   655 002D:060F
   656 002D:0612   657 002D:0613   658 002D:0614   659 002D:0615
   660 002D:0616   661 002D:0617   662 002D:0618   663 002D:061B
   664 002D:061E   665 002D:0622   666 002D:0624   668 002D:0627
   669 002D:0629   670 002D:062D   671 002D:062F   673 002D:0632
   674 002D:0634   675 002D:0636   676 002D:0638   677 002D:063B
   678 002D:063C   679 002D:0642   680 002D:0644   681 002D:0646
   682 002D:0648   683 002D:064A   684 002D:064C   685 002D:064D
   686 002D:0653   687 002D:065A   688 002D:065D   689 002D:0661
   690 002D:0663   692 002D:0666   693 002D:0667   694 002D:0669
   695 002D:066B   696 002D:066D   697 002D:0673   698 002D:0675
   699 002D:0677   700 002D:0679   701 002D:067B   702 002D:067D
   703 002D:067E   704 002D:0684   705 002D:068B   706 002D:068E
   707 002D:0692   708 002D:0694   710 002D:0697   711 002D:069C
   713 002D:06A4   714 002D:06AA   715 002D:06AE   716 002D:06AF
   717 002D:06B2   718 002D:06B4   719 002D:06B6   721 002D:06BE
   722 002D:06BF   723 002D:06C2   724 002D:06C4   725 002D:06C7
   726 002D:06C9   727 002D:06CC   728 002D:06CE   730 002D:06CF
   731 002D:06D2   736 002D:06D3   737 002D:06D4   738 002D:06D5
   739 002D:06D6   740 002D:06D8   741 002D:06DA   742 002D:06DB
   743 002D:06DF   744 002D:06E4   745 002D:06EB   746 002D:06F2
   747 002D:06F3   748 002D:06F8   749 002D:06FC   750 002D:06FD
   751 002D:06FE   752 002D:06FF   756 002D:0700   757 002D:0701
   758 002D:0702   759 002D:0703   760 002D:0708   761 002D:070D
   762 002D:070E   763 002D:0710   764 002D:0712   765 002D:0713
   766 002D:0718   767 002D:071D   768 002D:071E   769 002D:071F
   770 002D:0720   771 002D:0721   772 002D:0722   776 002D:0723
   777 002D:0724   778 002D:0725   779 002D:0729   780 002D:072B
   781 002D:072E   782 002D:072F   783 002D:0730   788 002D:0731
   789 002D:0732   790 002D:0733   791 002D:0734   792 002D:0736
   793 002D:0738   794 002D:0739   795 002D:073B   796 002D:073F
   797 002D:0743   798 002D:0745   799 002D:0747   800 002D:074B
   801 002D:0750   802 002D:0757   803 002D:075E   804 002D:075F
   805 002D:0764   806 002D:0768   807 002D:0769   808 002D:076A
   809 002D:076B   813 002D:076C   814 002D:076D   815 002D:076E
   816 002D:076F   817 002D:0774   818 002D:0779   819 002D:077A
   820 002D:077C   821 002D:077E   822 002D:077F   823 002D:0784
   824 002D:0789   825 002D:078B   826 002D:0790   827 002D:0794
   828 002D:0797   829 002D:0799   830 002D:079B   831 002D:079C
   832 002D:079D   833 002D:079E   834 002D:079F   835 002D:07A0
   843 002D:07A1   844 002D:07A2   845 002D:07A3   846 002D:07A6
   847 002D:07A8   848 002D:07AA   849 002D:07AC   850 002D:07AF
   851 002D:07B1   852 002D:07B3   853 002D:07B5   854 002D:07B9
   855 002D:07BB   856 002D:07BD   857 002D:07C1   858 002D:07C3
   859 002D:07C7   860 002D:07C8   861 002D:07CA   862 002D:07CC
   863 002D:07D0   864 002D:07D2   865 002D:07D6   866 002D:07D8
   867 002D:07DA   868 002D:07DC   869 002D:07DF   871 002D:07E2
   873 002D:07E5   874 002D:07E7   875 002D:07E9   876 002D:07EB
   877 002D:07ED   878 002D:07EF   879 002D:07F1   880 002D:07F3
   881 002D:07F5   882 002D:07F7   883 002D:07F9   884 002D:07FB
   885 002D:07FD   886 002D:07FF   887 002D:0801   888 002D:0803
   889 002D:0804   891 002D:0806   892 002D:0808   893 002D:080C
   894 002D:080E   895 002D:0810   896 002D:0812   897 002D:0814
   899 002D:0815   900 002D:0817   901 002D:0819   902 002D:081D
   903 002D:081F   904 002D:0823   905 002D:0825   906 002D:0827
   907 002D:0829   908 002D:082C   909 002D:082E   910 002D:0830
   911 002D:0832   912 002D:0834   913 002D:0839   915 002D:083D
   916 002D:0841   917 002D:0843   918 002D:0845   919 002D:0847
   920 002D:0849   921 002D:084B   923 002D:084D   924 002D:084E
   925 002D:084F   926 002D:0852

Program entry point at 0000:0257
