
 Start  Stop   Length Name               Class

 00000H 002AEH 002AFH PROGRAM            CODE
 002B0H 003B8H 00109H TKeyb              CODE
 003C0H 009A5H 005E6H TDos               CODE
 009B0H 01202H 00853H TSystem            CODE
 01210H 01C4CH 00A3DH System             CODE
 01C50H 0203DH 003EEH DATA               DATA
 02040H 0603FH 04000H STACK              STACK
 06040H 06040H 00000H HEAP               HEAP

  Address         Publics by Value

 0000:0000       HexB
 0000:003B       HexW
 0000:007B       HexPtr
 0000:00CF       ErrorControl
 0000:016E       @
 002B:0058       @
 002B:00C1       GetShiftStates
 002B:00C6       GetExtShiftStates
 002B:00CD       Get122ShiftStates
 002B:00D4       FlushKbdBuffer
 002B:00E3       KeyPresent
 002B:00F7       SetKeyboardRate_Delay
 003C:003C       @
 003C:00E9       DiskReset
 003C:00EF       SelectDrive
 003C:00FD       GetDefaultDrive
 003C:0103       SetDiskTransferArea
 003C:0136       SetInterruptVector
 003C:019E       SetVerifyFlag
 003C:01AC       GetDiskTransferArea
 003C:0206       GetBootDrive
 003C:021F       GetInterruptVector
 003C:0252       GetSwitchChar
 003C:025B       SetSwitchChar
 003C:026A       CreateDirectory
 003C:026E       RemoveDirectory
 003C:0272       ChangeDirectory
 003C:0282       CreateFile
 003C:029B       OpenFile
 003C:02B3       CloseFile
 003C:02C1       ReadFile
 003C:02C5       WriteFile
 003C:02E4       DeleteFile
 003C:02F4       SeekFile
 003C:0308       GetFileAttributes
 003C:0319       SetFileAttributes
 003C:032E       DuplicateHandle
 003C:033C       ForceDuplicateHandle
 003C:0362       AllocateMemory
 003C:0370       ReleaseMemory
 003C:0380       ReallocateMemory
 003C:0394       GetProgramExitCode
 003C:039A       SetPSP_Address
 003C:03A8       GetPSP_Address
 003C:03D7       GetVerifyFlag
 003C:03EF       RenameFile
 003C:0403       GetFileDate
 003C:0414       GetFileTime
 003C:0425       SetFileTimeDate
 003C:04CF       GetCurrentPSP
 003C:04D7       CapitalizeChar
 003C:04E8       CapitalizeString
 003C:04FD       CapitalizePChar
 003C:051D       CommitFile
 003C:0523       FflushFile
 003C:052B       GetFreeHMA_Addr
 003C:0535       HMA_MemAvail
 003C:053F       AllocateHMA
 003C:0575       GetEnvCount
 003C:05A2       EnvPChar
 009B:0000       DoNone
 009B:0293       @
 009B:02C5       FillDword
 009B:02DB       FillWord
 009B:02FE       FillByte
 009B:0325       Fill
 009B:035C       MovePtr
 009B:037D       SwapByte
 009B:0392       SwapWord
 009B:03A7       SwapLong
 009B:03BF       Swap
 009B:03F6       SearchPtr
 009B:0441       ReadMemoryByte
 009B:044D       ReadMemoryWord
 009B:0459       ReadMemoryDword
 009B:0469       WriteMemoryByte
 009B:0477       WriteMemoryWord
 009B:0485       WriteMemoryDword
 009B:0495       ReadPort
 009B:049F       WritePort
 009B:04AD       ReadIndexPort
 009B:04B9       WriteIndexPort
 009B:04EC       AbsReadMemoryByte
 009B:0506       AbsReadMemoryWord
 009B:0520       AbsReadMemoryDword
 009B:053E       AbsWriteMemoryByte
 009B:055B       AbsWriteMemoryWord
 009B:0578       AbsWriteMemoryDword
 009B:0597       CompareBuffersPtr
 009B:05BF       Delay
 009B:05D0       HardwareReboot
 009B:05E6       WarmReboot
 009B:05F7       ColdReboot
 01C5:0012       Keyb_Functions
 01C5:0013       KeyboardType
 01C5:0014       CpuType
 01C5:0016       CpuSpeed
 01C5:0018       CpuIDValid
 01C5:0019       BiosType
 01C5:001A       ExtendedMemorySize
 01C5:001C       CpuVendor
 01C5:0028       OvrCodeList
 01C5:002A       OvrHeapSize
 01C5:002C       OvrDebugPtr
 01C5:0030       OvrHeapOrg
 01C5:0032       OvrHeapPtr
 01C5:0034       OvrHeapEnd
 01C5:0036       OvrLoadList
 01C5:0038       OvrDosHandle
 01C5:003A       OvrEmsHandle
 01C5:003C       HeapOrg
 01C5:0040       HeapPtr
 01C5:0044       HeapEnd
 01C5:0048       FreeList
 01C5:004C       FreeZero
 01C5:0050       HeapError
 01C5:0054       ExitProc
 01C5:0058       ExitCode
 01C5:005A       ErrorAddr
 01C5:005E       PrefixSeg
 01C5:0060       StackLimit
 01C5:0062       InOutRes
 01C5:0064       RandSeed
 01C5:0068       SelectorInc
 01C5:006A       Seg0040
 01C5:006C       SegA000
 01C5:006E       SegB000
 01C5:0070       SegB800
 01C5:0072       Test8086
 01C5:0073       Test8087
 01C5:0074       FileMode
 01C5:0078       TestString
 01C5:0178       GetKey
 01C5:017C       DosResult
 01C5:018A       DosVersion
 01C5:018C       SysVars
 01C5:0190       InDosFlagPtr
 01C5:0194       FileOpenMode
 01C5:0196       PrefixSeg
 01C5:0198       DosFlags
 01C5:019A       SelfAddr
 01C5:019E       BiosConfigTable
 01C5:01A2       Input
 01C5:02A2       Output
 01C5:03A2       SaveInt00
 01C5:03A6       SaveInt02
 01C5:03AA       SaveInt1B
 01C5:03AE       SaveInt21
 01C5:03B2       SaveInt23
 01C5:03B6       SaveInt24
 01C5:03BA       SaveInt34
 01C5:03BE       SaveInt35
 01C5:03C2       SaveInt36
 01C5:03C6       SaveInt37
 01C5:03CA       SaveInt38
 01C5:03CE       SaveInt39
 01C5:03D2       SaveInt3A
 01C5:03D6       SaveInt3B
 01C5:03DA       SaveInt3C
 01C5:03DE       SaveInt3D
 01C5:03E2       SaveInt3E
 01C5:03E6       SaveInt3F
 01C5:03EA       SaveInt75

Line numbers for PROGRAM(TEST_DOS.PAS) segment PROGRAM

    14 0000:0000    15 0000:000A    16 0000:001F    17 0000:0033
    18 0000:0037    21 0000:003B    22 0000:004A    23 0000:0075
    26 0000:007B    27 0000:008A    28 0000:00BF    32 0000:00CF
    33 0000:00DE    34 0000:010D    35 0000:0115    40 0000:016E
    41 0000:0191    42 0000:01AC    43 0000:01C8    44 0000:01D2
    45 0000:01F9    48 0000:0202    49 0000:020F    50 0000:0242
    51 0000:027A    56 0000:02A7

Line numbers for TKeyb(TKEYB.PAS) segment TKeyb

    95 002B:0000    96 002B:000A    97 002B:000D    98 002B:0010
    99 002B:0023   100 002B:0036   101 002B:0049   103 002B:0056
   106 002B:0058   107 002B:0062   108 002B:0065

Line numbers for TKeyb(TKEYB.ASM) segment TKeyb

    48 002B:0067    49 002B:0068    50 002B:0069    51 002B:006A
    52 002B:006C    53 002B:006E    54 002B:0072    55 002B:0074
    56 002B:0076    57 002B:007A    58 002B:007C    59 002B:007E
    60 002B:0081    62 002B:0084    64 002B:0089    65 002B:008C
    66 002B:008E    67 002B:0092    68 002B:0095    69 002B:0099
    70 002B:009E    72 002B:00A1    73 002B:00A6    75 002B:00A9
    77 002B:00AE    78 002B:00AF    79 002B:00B0    80 002B:00B1
    85 002B:00B2    86 002B:00B4    87 002B:00B6    92 002B:00B7
    93 002B:00B9    94 002B:00BB    99 002B:00BC   100 002B:00BE
   101 002B:00C0   106 002B:00C1   107 002B:00C3   108 002B:00C5
   113 002B:00C6   114 002B:00C8   115 002B:00CA   116 002B:00CC
   121 002B:00CD   122 002B:00CF   123 002B:00D1   124 002B:00D3
   130 002B:00D4   131 002B:00D6   132 002B:00D8   133 002B:00DC
   134 002B:00DE   135 002B:00E0   137 002B:00E2   142 002B:00E3
   143 002B:00E5   144 002B:00E7   145 002B:00EB   146 002B:00ED
   147 002B:00EF   148 002B:00F1   150 002B:00F4   152 002B:00F6
   159 002B:00F7   160 002B:00F9   161 002B:00FC   162 002B:0100
   163 002B:0104   164 002B:0106

Line numbers for TDos(TDOS.PAS) segment TDos

   246 003C:0000   247 003C:000A   248 003C:0018   249 003C:0025
   250 003C:0028   251 003C:002B   252 003C:002E   253 003C:0033
   254 003C:003A   256 003C:003C   257 003C:0046   258 003C:0049

Line numbers for TDos(TDOS.ASM) segment TDos

   189 003C:004B   190 003C:004D   191 003C:0052   192 003C:0058
   193 003C:0062   194 003C:0069   195 003C:006D   196 003C:006F
   197 003C:0071   202 003C:0072   203 003C:0074   204 003C:0079
   205 003C:007F   206 003C:0089   207 003C:0090   208 003C:0094
   209 003C:0096   210 003C:0098   211 003C:009D   212 003C:00A1
   213 003C:00A5   215 003C:00AA   220 003C:00AB   221 003C:00AD
   222 003C:00B2   223 003C:00B8   224 003C:00C2   225 003C:00C9
   226 003C:00CD   227 003C:00CF   228 003C:00D1   229 003C:00D6
   230 003C:00D8   231 003C:00DC   232 003C:00E3   234 003C:00E8
   241 003C:00E9   242 003C:00EB   243 003C:00EE   249 003C:00EF
   250 003C:00F1   251 003C:00F3   252 003C:00F7   253 003C:00FA
   258 003C:00FD   259 003C:00FF   260 003C:0102   266 003C:0103
   267 003C:0105   268 003C:0106   269 003C:0108   270 003C:010C
   271 003C:010F   272 003C:0110   279 003C:0113   280 003C:0115
   281 003C:0117   282 003C:011B   283 003C:011E   284 003C:0122
   285 003C:0125   286 003C:0129   287 003C:012D   288 003C:012F
   289 003C:0133   296 003C:0136   297 003C:0138   298 003C:0139
   299 003C:013B   300 003C:013F   301 003C:0143   302 003C:0146
   303 003C:0147   309 003C:014A   310 003C:014C   311 003C:014F
   312 003C:0151   313 003C:0155   314 003C:0158   315 003C:015C
   321 003C:015F   322 003C:0161   323 003C:0165   324 003C:0168
   325 003C:016C   326 003C:016E   327 003C:0171   333 003C:0174
   334 003C:0176   335 003C:0179   336 003C:017B   337 003C:017F
   338 003C:0182   339 003C:0186   345 003C:0189   346 003C:018B
   347 003C:018F   348 003C:0192   349 003C:0196   350 003C:0198
   351 003C:019B   357 003C:019E   358 003C:01A0   359 003C:01A2
   360 003C:01A6   361 003C:01A9   366 003C:01AC   367 003C:01AF
   368 003C:01B2   369 003C:01B4   370 003C:01B6   375 003C:01B7
   376 003C:01B9   377 003C:01BC   378 003C:01BE   379 003C:01C1
   385 003C:01C2   386 003C:01C4   387 003C:01C7   388 003C:01C9
   389 003C:01CE   390 003C:01D0   391 003C:01D2   392 003C:01D6
   393 003C:01D9   399 003C:01DC   400 003C:01DE   401 003C:01DF
   402 003C:01E1   403 003C:01E5   404 003C:01E8   405 003C:01EA
   406 003C:01EC   407 003C:01ED   412 003C:01F0   413 003C:01F3
   414 003C:01F6   420 003C:01F7   421 003C:01F9   422 003C:01FC
   423 003C:0200   424 003C:0203   429 003C:0206   430 003C:0209
   431 003C:020C   432 003C:020E   437 003C:020F   438 003C:0211
   439 003C:0214   440 003C:0218   441 003C:021A   442 003C:021E
   448 003C:021F   449 003C:0221   450 003C:0223   451 003C:0227
   452 003C:022A   453 003C:022C   454 003C:022E   461 003C:0231
   462 003C:0233   463 003C:0235   464 003C:0239   465 003C:023C
   466 003C:0240   467 003C:0243   468 003C:0247   469 003C:024B
   470 003C:024F   475 003C:0252   476 003C:0255   477 003C:0258
   478 003C:025A   484 003C:025B   485 003C:025D   486 003C:0260
   487 003C:0264   488 003C:0267   494 003C:026A   495 003C:026C
   497 003C:026E   498 003C:0270   500 003C:0272   502 003C:0274
   503 003C:0276   504 003C:0277   505 003C:027B   506 003C:027E
   507 003C:027F   517 003C:0282   518 003C:0284   519 003C:0286
   520 003C:0287   521 003C:028B   522 003C:028F   523 003C:0292
   524 003C:0296   525 003C:0297   526 003C:0298   533 003C:029B
   534 003C:029D   535 003C:029F   536 003C:02A2   537 003C:02A3
   538 003C:02A7   539 003C:02AA   540 003C:02AE   541 003C:02AF
   542 003C:02B0   548 003C:02B3   549 003C:02B5   550 003C:02B7
   551 003C:02BB   552 003C:02BE   561 003C:02C1   562 003C:02C3
   564 003C:02C5   566 003C:02C7   567 003C:02C9   568 003C:02CA
   569 003C:02CE   570 003C:02D2   571 003C:02D6   572 003C:02D9
   573 003C:02DA   574 003C:02DC   575 003C:02E0   576 003C:02E1
   583 003C:02E4   584 003C:02E6   585 003C:02E7   586 003C:02E9
   587 003C:02ED   588 003C:02F0   589 003C:02F1   596 003C:02F4
   597 003C:02F6   598 003C:02FA   599 003C:02FE   600 003C:0300
   601 003C:0302   602 003C:0305   608 003C:0308   609 003C:030A
   610 003C:030B   611 003C:030E   612 003C:0312   613 003C:0315
   614 003C:0316   621 003C:0319   622 003C:031B   623 003C:031C
   624 003C:031F   625 003C:0323   626 003C:0327   627 003C:032A
   628 003C:032B   634 003C:032E   635 003C:0330   636 003C:0332
   637 003C:0336   638 003C:0339   645 003C:033C   646 003C:033E
   647 003C:0340   648 003C:0344   649 003C:0348   650 003C:034B
   657 003C:034E   658 003C:0350   659 003C:0351   660 003C:0353
   661 003C:0357   662 003C:035B   663 003C:035E   664 003C:035F
   670 003C:0362   671 003C:0364   672 003C:0366   673 003C:036A
   674 003C:036D   680 003C:0370   681 003C:0372   682 003C:0374
   683 003C:0378   684 003C:037A   685 003C:037D   692 003C:0380
   693 003C:0382   694 003C:0386   695 003C:0388   696 003C:038C
   697 003C:038E   698 003C:0391   703 003C:0394   704 003C:0396
   705 003C:0399   720 003C:039A   721 003C:039C   722 003C:039E
   723 003C:03A2   724 003C:03A5   729 003C:03A8   730 003C:03AA
   731 003C:03AD   732 003C:03AF   737 003C:03B0   738 003C:03B2
   739 003C:03B5   740 003C:03B8   741 003C:03BC   742 003C:03BE
   743 003C:03C2   750 003C:03C3   751 003C:03C5   752 003C:03C6
   753 003C:03C8   754 003C:03CC   755 003C:03D0   756 003C:03D3
   757 003C:03D4   762 003C:03D7   763 003C:03D9   764 003C:03DC
   771 003C:03DD   772 003C:03DF   773 003C:03E1   774 003C:03E5
   775 003C:03E9   776 003C:03EC   783 003C:03EF   784 003C:03F1
   785 003C:03F3   786 003C:03F4   787 003C:03F8   788 003C:03FC
   789 003C:03FF   790 003C:0400   796 003C:0403   797 003C:0405
   798 003C:0408   799 003C:040C   800 003C:040F   801 003C:0411
   807 003C:0414   808 003C:0416   809 003C:0419   810 003C:041D
   811 003C:0420   812 003C:0422   820 003C:0425   821 003C:0427
   822 003C:042A   823 003C:042E   824 003C:0432   825 003C:0436
   826 003C:0439   831 003C:043C   832 003C:043F   833 003C:0442
   839 003C:0443   840 003C:0445   841 003C:0448   842 003C:044C
   843 003C:044E   844 003C:0451   849 003C:0454   850 003C:0457
   851 003C:045A   857 003C:045B   858 003C:045D   859 003C:0460
   860 003C:0464   861 003C:0466   862 003C:0469   870 003C:046A
   871 003C:046C   873 003C:046E   875 003C:0470   876 003C:0472
   877 003C:0473   878 003C:0477   879 003C:047B   880 003C:047E
   881 003C:0482   882 003C:0483   883 003C:0484   892 003C:0487
   893 003C:048A   895 003C:048C   897 003C:048F   898 003C:0491
   899 003C:0495   900 003C:0499   901 003C:049D   902 003C:04A1
   903 003C:04A5   904 003C:04A8   911 003C:04AB   912 003C:04AE
   914 003C:04B0   916 003C:04B3   917 003C:04B7   918 003C:04BA
   926 003C:04BD   927 003C:04BF   928 003C:04C1   929 003C:04C5
   930 003C:04C9   931 003C:04CC   936 003C:04CF   937 003C:04D1
   938 003C:04D4   939 003C:04D6   949 003C:04D7   950 003C:04D9
   951 003C:04DC   952 003C:04E0   953 003C:04E3   954 003C:04E5
   960 003C:04E8   961 003C:04EA   962 003C:04EB   963 003C:04EF
   964 003C:04F0   965 003C:04F1   966 003C:04F3   967 003C:04F6
   968 003C:04F9   969 003C:04FA   975 003C:04FD   976 003C:04FF
   977 003C:0500   978 003C:0503   979 003C:0507   980 003C:050A
   981 003C:050B   995 003C:050E   996 003C:0510   997 003C:0513
   998 003C:0517   999 003C:051A  1005 003C:051D  1006 003C:051F
  1007 003C:0521  1009 003C:0523  1011 003C:0525  1012 003C:0528
  1038 003C:052B  1039 003C:052E  1040 003C:0530  1041 003C:0532
  1042 003C:0534  1047 003C:0535  1048 003C:0537  1049 003C:053A
  1050 003C:053C  1051 003C:053E  1057 003C:053F  1058 003C:0541
  1059 003C:0544  1060 003C:0548  1061 003C:054A  1062 003C:054C
  1063 003C:054E  1068 003C:0551  1069 003C:0552  1070 003C:0553
  1071 003C:0554  1072 003C:0555  1073 003C:0556  1074 003C:0557
  1075 003C:0559  1076 003C:055C  1077 003C:055F  1078 003C:0561
  1079 003C:0564  1080 003C:0567  1081 003C:0568  1082 003C:0569
  1083 003C:056B  1084 003C:056F  1086 003C:0570  1087 003C:0571
  1088 003C:0572  1089 003C:0573  1090 003C:0574  1096 003C:0575
  1097 003C:0577  1098 003C:057B  1099 003C:057E  1100 003C:0580
  1101 003C:0584  1102 003C:0586  1103 003C:0588  1104 003C:058B
  1106 003C:058D  1107 003C:058E  1108 003C:0592  1109 003C:0594
  1110 003C:0596  1111 003C:0597  1113 003C:0599  1114 003C:059B
  1116 003C:059D  1118 003C:059F  1125 003C:05A2  1126 003C:05A4
  1127 003C:05A5  1128 003C:05A6  1129 003C:05AA  1130 003C:05AE
  1131 003C:05AF  1132 003C:05B2  1133 003C:05B6  1134 003C:05BA
  1135 003C:05BE  1136 003C:05C0  1137 003C:05C2  1138 003C:05C4
  1139 003C:05C6  1140 003C:05CA  1141 003C:05CC  1143 003C:05CF
  1145 003C:05D1  1146 003C:05D2  1147 003C:05D4  1148 003C:05D6
  1149 003C:05D7  1150 003C:05D9  1151 003C:05DB  1152 003C:05DD
  1154 003C:05DF  1155 003C:05E1  1157 003C:05E3

Line numbers for TSystem(TSYSTEM.PAS) segment TSystem

   231 009B:0000   276 009B:0001   277 009B:000B   278 009B:0011
   283 009B:001A   284 009B:0029   285 009B:0058   290 009B:0065
   291 009B:0074   292 009B:00A3   294 009B:00CA   295 009B:00D9
   296 009B:0124   297 009B:014E   298 009B:0178   299 009B:01A1
   300 009B:01BB   301 009B:01C3   302 009B:01D3   303 009B:01FC
   304 009B:020C   305 009B:0212   309 009B:023F   310 009B:0249
   311 009B:024C   313 009B:0253   314 009B:026E   316 009B:0276
   317 009B:0279   318 009B:027C   319 009B:027F   320 009B:0282
   321 009B:0291   324 009B:0293   325 009B:029D   326 009B:02A0

Line numbers for TSystem(TSYSTEM.ASM) segment TSystem

    70 009B:02C5    71 009B:02C7    72 009B:02CB    73 009B:02CF
    74 009B:02D0    75 009B:02D5    76 009B:02D8    85 009B:02DB
    86 009B:02DD    87 009B:02E1    88 009B:02E5    89 009B:02E9
    90 009B:02ED    91 009B:02F1    92 009B:02F3    93 009B:02F4
    94 009B:02F7    95 009B:02F9    96 009B:02FB   105 009B:02FE
   106 009B:0300   107 009B:0304   108 009B:0308   109 009B:030C
   110 009B:030E   111 009B:030F   112 009B:0313   113 009B:0314
   114 009B:0315   115 009B:0316   116 009B:0319   117 009B:031C
   118 009B:031D   119 009B:0320   120 009B:0322   130 009B:0325
   131 009B:0327   132 009B:0328   133 009B:032C   134 009B:0330
   135 009B:0334   136 009B:0338   137 009B:0339   139 009B:033B
   140 009B:033D   141 009B:0340   142 009B:0344   143 009B:0347
   144 009B:034A   145 009B:034C   146 009B:034F   147 009B:0351
   148 009B:0355   149 009B:0356   151 009B:0358   152 009B:0359
   162 009B:035C   163 009B:035E   164 009B:035F   165 009B:0363
   166 009B:0367   167 009B:036B   168 009B:036C   169 009B:036D
   170 009B:0370   171 009B:0373   172 009B:0374   173 009B:0377
   174 009B:0379   175 009B:037A   183 009B:037D   184 009B:037F
   185 009B:0380   186 009B:0384   187 009B:0388   188 009B:038B
   189 009B:038D   190 009B:038E   191 009B:038F   199 009B:0392
   200 009B:0394   201 009B:0395   202 009B:0399   203 009B:039D
   204 009B:03A0   205 009B:03A2   206 009B:03A3   207 009B:03A4
   215 009B:03A7   216 009B:03A9   217 009B:03AA   218 009B:03AE
   219 009B:03B2   220 009B:03B6   221 009B:03B9   222 009B:03BB
   223 009B:03BC   232 009B:03BF   233 009B:03C1   234 009B:03C2
   235 009B:03C6   236 009B:03C8   237 009B:03CC   238 009B:03D0
   239 009B:03D1   240 009B:03D3   241 009B:03D5   243 009B:03D6
   244 009B:03D9   245 009B:03DB   246 009B:03DE   247 009B:03E1
   248 009B:03E4   249 009B:03E6   250 009B:03E7   252 009B:03EB
   253 009B:03ED   254 009B:03F0   256 009B:03F2   257 009B:03F3
   267 009B:03F6   268 009B:03F8   269 009B:03F9   270 009B:03FD
   271 009B:03FF   272 009B:0403   273 009B:0407   274 009B:0409
   275 009B:040D   276 009B:0411   277 009B:0412   278 009B:0413
   280 009B:0415   281 009B:0417   282 009B:041B   283 009B:041D
   284 009B:0421   285 009B:0422   286 009B:0423   287 009B:0424
   288 009B:0426   289 009B:0428   290 009B:0429   291 009B:042A
   292 009B:042B   294 009B:042D   295 009B:042E   296 009B:0430
   297 009B:0432   298 009B:0434   300 009B:0437   301 009B:043A
   303 009B:043D   304 009B:043E   311 009B:0441   312 009B:0443
   313 009B:0447   314 009B:044A   321 009B:044D   322 009B:044F
   323 009B:0453   324 009B:0456   331 009B:0459   332 009B:045B
   333 009B:045F   334 009B:0462   335 009B:0466   343 009B:0469
   344 009B:046B   345 009B:046F   346 009B:0473   347 009B:0474
   355 009B:0477   356 009B:0479   357 009B:047D   358 009B:0481
   359 009B:0482   367 009B:0485   368 009B:0487   369 009B:048C
   370 009B:0490   371 009B:0492   378 009B:0495   379 009B:0497
   380 009B:049B   381 009B:049C   389 009B:049F   390 009B:04A1
   391 009B:04A5   392 009B:04A9   393 009B:04AA   401 009B:04AD
   402 009B:04AF   403 009B:04B3   404 009B:04B4   405 009B:04B5
   406 009B:04B6   415 009B:04B9   416 009B:04BB   417 009B:04BF
   418 009B:04C3   419 009B:04C7   420 009B:04C8   426 009B:04CB
   427 009B:04CC   428 009B:04CE   429 009B:04D0   430 009B:04D2
   431 009B:04D4   432 009B:04D6   433 009B:04D8   434 009B:04DA
   435 009B:04DB   436 009B:04DE   442 009B:04DF   443 009B:04E1
   444 009B:04E3   445 009B:04E7   446 009B:04EB   453 009B:04EC
   454 009B:04EE   455 009B:04EF   456 009B:04F3   457 009B:04F7
   458 009B:04F8   459 009B:04F9   460 009B:04FB   461 009B:04FD
   462 009B:04FF   463 009B:0502   464 009B:0503   471 009B:0506
   472 009B:0508   473 009B:0509   474 009B:050D   475 009B:0511
   476 009B:0512   477 009B:0513   478 009B:0515   479 009B:0517
   480 009B:0519   481 009B:051C   482 009B:051D   489 009B:0520
   490 009B:0522   491 009B:0523   492 009B:0527   493 009B:052B
   494 009B:052C   495 009B:052D   496 009B:052F   497 009B:0531
   498 009B:0533   499 009B:0536   500 009B:053A   501 009B:053B
   509 009B:053E   510 009B:0540   511 009B:0541   512 009B:0545
   513 009B:0549   514 009B:054A   515 009B:054B   516 009B:054D
   517 009B:054F   518 009B:0551   519 009B:0555   520 009B:0557
   521 009B:0558   529 009B:055B   530 009B:055D   531 009B:055E
   532 009B:0562   533 009B:0566   534 009B:0567   535 009B:0568
   536 009B:056A   537 009B:056C   538 009B:056E   539 009B:0572
   540 009B:0574   541 009B:0575   549 009B:0578   550 009B:057A
   551 009B:057B   552 009B:057F   553 009B:0583   554 009B:0584
   555 009B:0585   556 009B:0587   557 009B:0589   558 009B:058B
   559 009B:0590   560 009B:0593   561 009B:0594   569 009B:0597
   570 009B:0599   571 009B:059B   572 009B:059F   573 009B:05A1
   574 009B:05A5   575 009B:05A9   576 009B:05AA   577 009B:05AC
   578 009B:05AF   579 009B:05B1   580 009B:05B5   581 009B:05B6
   582 009B:05B8   584 009B:05BA   585 009B:05BC   592 009B:05BF
   593 009B:05C1   594 009B:05C5   595 009B:05C9   596 009B:05CB
   597 009B:05CD   608 009B:05D0   609 009B:05D3   611 009B:05D4
   612 009B:05D5   613 009B:05D7   614 009B:05D9   615 009B:05DA
   616 009B:05DC   617 009B:05DE   618 009B:05DF   619 009B:05E1
   621 009B:05E3   622 009B:05E4   628 009B:05E6   629 009B:05E9
   630 009B:05EB   631 009B:05F1   632 009B:05F4   633 009B:05F6
   639 009B:05F7   640 009B:05FA   641 009B:05FC   642 009B:0602
   643 009B:0605   644 009B:0607   650 009B:0608   651 009B:0609
   652 009B:060A   653 009B:060B   654 009B:060C   655 009B:060F
   656 009B:0612   657 009B:0613   658 009B:0614   659 009B:0615
   660 009B:0616   661 009B:0617   662 009B:0618   663 009B:061B
   664 009B:061E   665 009B:0622   666 009B:0624   668 009B:0627
   669 009B:0629   670 009B:062D   671 009B:062F   673 009B:0632
   674 009B:0634   675 009B:0636   676 009B:0638   677 009B:063B
   678 009B:063C   679 009B:0642   680 009B:0644   681 009B:0646
   682 009B:0648   683 009B:064A   684 009B:064C   685 009B:064D
   686 009B:0653   687 009B:065A   688 009B:065D   689 009B:0661
   690 009B:0663   692 009B:0666   693 009B:0667   694 009B:0669
   695 009B:066B   696 009B:066D   697 009B:0673   698 009B:0675
   699 009B:0677   700 009B:0679   701 009B:067B   702 009B:067D
   703 009B:067E   704 009B:0684   705 009B:068B   706 009B:068E
   707 009B:0692   708 009B:0694   710 009B:0697   711 009B:069C
   713 009B:06A4   714 009B:06AA   715 009B:06AE   716 009B:06AF
   717 009B:06B2   718 009B:06B4   719 009B:06B6   721 009B:06BE
   722 009B:06BF   723 009B:06C2   724 009B:06C4   725 009B:06C7
   726 009B:06C9   727 009B:06CC   728 009B:06CE   730 009B:06CF
   731 009B:06D2   736 009B:06D3   737 009B:06D4   738 009B:06D5
   739 009B:06D6   740 009B:06D8   741 009B:06DA   742 009B:06DB
   743 009B:06DF   744 009B:06E4   745 009B:06EB   746 009B:06F2
   747 009B:06F3   748 009B:06F8   749 009B:06FC   750 009B:06FD
   751 009B:06FE   752 009B:06FF   756 009B:0700   757 009B:0701
   758 009B:0702   759 009B:0703   760 009B:0708   761 009B:070D
   762 009B:070E   763 009B:0710   764 009B:0712   765 009B:0713
   766 009B:0718   767 009B:071D   768 009B:071E   769 009B:071F
   770 009B:0720   771 009B:0721   772 009B:0722   776 009B:0723
   777 009B:0724   778 009B:0725   779 009B:0729   780 009B:072B
   781 009B:072E   782 009B:072F   783 009B:0730   788 009B:0731
   789 009B:0732   790 009B:0733   791 009B:0734   792 009B:0736
   793 009B:0738   794 009B:0739   795 009B:073B   796 009B:073F
   797 009B:0743   798 009B:0745   799 009B:0747   800 009B:074B
   801 009B:0750   802 009B:0757   803 009B:075E   804 009B:075F
   805 009B:0764   806 009B:0768   807 009B:0769   808 009B:076A
   809 009B:076B   813 009B:076C   814 009B:076D   815 009B:076E
   816 009B:076F   817 009B:0774   818 009B:0779   819 009B:077A
   820 009B:077C   821 009B:077E   822 009B:077F   823 009B:0784
   824 009B:0789   825 009B:078B   826 009B:0790   827 009B:0794
   828 009B:0797   829 009B:0799   830 009B:079B   831 009B:079C
   832 009B:079D   833 009B:079E   834 009B:079F   835 009B:07A0
   843 009B:07A1   844 009B:07A2   845 009B:07A3   846 009B:07A6
   847 009B:07A8   848 009B:07AA   849 009B:07AC   850 009B:07AF
   851 009B:07B1   852 009B:07B3   853 009B:07B5   854 009B:07B9
   855 009B:07BB   856 009B:07BD   857 009B:07C1   858 009B:07C3
   859 009B:07C7   860 009B:07C8   861 009B:07CA   862 009B:07CC
   863 009B:07D0   864 009B:07D2   865 009B:07D6   866 009B:07D8
   867 009B:07DA   868 009B:07DC   869 009B:07DF   871 009B:07E2
   873 009B:07E5   874 009B:07E7   875 009B:07E9   876 009B:07EB
   877 009B:07ED   878 009B:07EF   879 009B:07F1   880 009B:07F3
   881 009B:07F5   882 009B:07F7   883 009B:07F9   884 009B:07FB
   885 009B:07FD   886 009B:07FF   887 009B:0801   888 009B:0803
   889 009B:0804   891 009B:0806   892 009B:0808   893 009B:080C
   894 009B:080E   895 009B:0810   896 009B:0812   897 009B:0814
   899 009B:0815   900 009B:0817   901 009B:0819   902 009B:081D
   903 009B:081F   904 009B:0823   905 009B:0825   906 009B:0827
   907 009B:0829   908 009B:082C   909 009B:082E   910 009B:0830
   911 009B:0832   912 009B:0834   913 009B:0839   915 009B:083D
   916 009B:0841   917 009B:0843   918 009B:0845   919 009B:0847
   920 009B:0849   921 009B:084B   923 009B:084D   924 009B:084E
   925 009B:084F   926 009B:0852

Program entry point at 0000:016E
