
 Start  Stop   Length Name               Class

 00000H 00AFEH 00AFFH PROGRAM            CODE
 00B00H 00C08H 00109H TKeyb              CODE
 00C10H 00D00H 000F1H TStrings           CODE
 00D10H 01484H 00775H TXms               CODE
 01490H 01CE2H 00853H TSystem            CODE
 01CF0H 029B3H 00CC4H System             CODE
 029C0H 02D59H 0039AH DATA               DATA
 02D60H 06D5FH 04000H STACK              STACK
 06D60H 06D60H 00000H HEAP               HEAP

  Address         Publics by Value

 0000:0000       DigitToString
 0000:0039       WordToBCDStr
 0000:008D       ByteToBCDStr
 0000:026F       ShowXMS_Info
 0000:0458       ShowQEMM_Info
 0000:047F       ShowEMM386_Info
 0000:071D       ShowEMS_Info
 0000:0A83       WriteHeader
 0000:0AC2       @
 00B0:0058       @
 00B0:00C1       GetShiftStates
 00B0:00C6       GetExtShiftStates
 00B0:00CD       Get122ShiftStates
 00B0:00D4       FlushKbdBuffer
 00B0:00E3       KeyPresent
 00B0:00F7       SetKeyboardRate_Delay
 00C1:0000       HexByte
 00C1:005B       HexWord
 00C1:009D       HexPtr
 00C1:00E5       @
 00D1:0000       @
 00D1:00A4       InitTXms
 00D1:00FA       ReleaseHMA
 00D1:0100       AllocateHMA
 00D1:010E       GlobalEnableA20
 00D1:0114       GlobalDisableA20
 00D1:011A       LocalEnableA20
 00D1:0120       LocalDisableA20
 00D1:0126       QueryA20
 00D1:012C       GetFreeXMS
 00D1:0134       GetMaxFreeXMSBlock
 00D1:013A       AllocateEMB
 00D1:014A       ReleaseEMB
 00D1:0158       ReallocateEMB
 00D1:016A       LockEMB
 00D1:017A       UnlockEMB
 00D1:0188       GetEMBSize
 00D1:0198       GetEMBLockCount
 00D1:01A8       GetEMBFreeHandles
 00D1:01B8       AllocateUMB
 00D1:01C8       ReleaseUMB
 00D1:01D6       ReallocateUMB
 00D1:01E8       UMBMaxAvail
 00D1:0226       MoveEMBUsers
 00D1:03B6       InitTEms
 00D1:03DF       GetFreeEMSPages
 00D1:03E8       GetActiveEMSHandles
 00D1:03F1       AllocateEMS
 00D1:0402       ReleaseEMS
 00D1:0413       MapEMSPages
 00D1:042A       GetEMSHandlePages
 00D1:0439       GetEMSHandlesTable
 00D1:0453       ReallocateEMS
 00D1:0466       GetEMS_HandleAttr
 00D1:0477       SetEMS_HandleAttr
 00D1:048C       GetEMS_HandleName
 00D1:04A1       SetEMS_HandleName
 00D1:04B6       FindEMS_Handle
 00D1:050F       MoveEMSUsers
 00D1:0562       WarmBootPrepare
 00D1:0569       GetFreeRawPages
 00D1:0604       EMM386_GetState
 00D1:060C       EMM386_SetState
 00D1:0616       EMM386_GetWeitekSupport
 00D1:061E       EMM386_SetWeitekSupport
 00D1:062C       EMM386_PrintReport
 00D1:0632       EMM386_PrintCopyright
 00D1:0638       QEMM_GetState
 00D1:063E       QEMM_SetState
 00D1:064C       QEMM_GetVersion
 00D1:0652       QEMM_GetHiramChain
 00D1:0670       QEMM_GetManifestPresent
 00D1:068B       QEMM_CopyStealthRoms
 00D1:06A5       QEMM_UntrappedIORead
 00D1:06B4       QEMM_UntrappedIOWrite
 00D1:06C7       QEMM_UntrappedIOReadIndexed
 00D1:06DC       QEMM_UntrappedIOWriteIndexed
 00D1:06F5       QEMM_GetIOCallback
 00D1:0700       QEMM_SetIOCallback
 00D1:070F       QEMM_GetPortTrap
 00D1:071E       QEMM_SetPortTrap
 00D1:072D       QEMM_ClearPortTrap
 00D1:073C       QEMM_GetStealthCount
 00D1:0745       QEMM_GetInfo
 00D1:075F       QEMM_GetMemoryStatistics
 00D1:076A       QEMM_GetStealthList
 0149:0000       DoNone
 0149:0293       @
 0149:02C5       FillDword
 0149:02DB       FillWord
 0149:02FE       FillByte
 0149:0325       Fill
 0149:035C       MovePtr
 0149:037D       SwapByte
 0149:0392       SwapWord
 0149:03A7       SwapLong
 0149:03BF       Swap
 0149:03F6       SearchPtr
 0149:0441       ReadMemoryByte
 0149:044D       ReadMemoryWord
 0149:0459       ReadMemoryDword
 0149:0469       WriteMemoryByte
 0149:0477       WriteMemoryWord
 0149:0485       WriteMemoryDword
 0149:0495       ReadPort
 0149:049F       WritePort
 0149:04AD       ReadIndexPort
 0149:04B9       WriteIndexPort
 0149:04EC       AbsReadMemoryByte
 0149:0506       AbsReadMemoryWord
 0149:0520       AbsReadMemoryDword
 0149:053E       AbsWriteMemoryByte
 0149:055B       AbsWriteMemoryWord
 0149:0578       AbsWriteMemoryDword
 0149:0597       CompareBuffersPtr
 0149:05BF       Delay
 0149:05D0       HardwareReboot
 0149:05E6       WarmReboot
 0149:05F7       ColdReboot
 029C:0002       cs_Ver
 029C:0008       csa_YesNo
 029C:0010       csa_OnOff
 029C:0018       cs_Bytes
 029C:0020       cs_KBytes
 029C:0028       csa_DrvType
 029C:005C       csa_DmaOperationType
 029C:0094       Keyb_Functions
 029C:0095       KeyboardType
 029C:0096       CpuType
 029C:0098       CpuSpeed
 029C:009A       CpuIDValid
 029C:009B       BiosType
 029C:009C       ExtendedMemorySize
 029C:009E       CpuVendor
 029C:00AA       OvrCodeList
 029C:00AC       OvrHeapSize
 029C:00AE       OvrDebugPtr
 029C:00B2       OvrHeapOrg
 029C:00B4       OvrHeapPtr
 029C:00B6       OvrHeapEnd
 029C:00B8       OvrLoadList
 029C:00BA       OvrDosHandle
 029C:00BC       OvrEmsHandle
 029C:00BE       HeapOrg
 029C:00C2       HeapPtr
 029C:00C6       HeapEnd
 029C:00CA       FreeList
 029C:00CE       FreeZero
 029C:00D2       HeapError
 029C:00D6       ExitProc
 029C:00DA       ExitCode
 029C:00DC       ErrorAddr
 029C:00E0       PrefixSeg
 029C:00E2       StackLimit
 029C:00E4       InOutRes
 029C:00E6       RandSeed
 029C:00EA       SelectorInc
 029C:00EC       Seg0040
 029C:00EE       SegA000
 029C:00F0       SegB000
 029C:00F2       SegB800
 029C:00F4       Test8086
 029C:00F5       Test8087
 029C:00F6       FileMode
 029C:00FA       GetKey
 029C:00FE       XMS_Present
 029C:0100       XMS_HandlesTable
 029C:0104       XMS_Version
 029C:0106       XMS_Revision
 029C:0108       HMA_Present
 029C:010A       XMM_DriverAPI
 029C:010E       XMS_Result
 029C:011B       EMS_Present
 029C:011C       EMS_Version
 029C:011E       PageFrame
 029C:0120       TotalRawPages
 029C:0122       TotalEmsPages
 029C:0124       TotalEmsHandles
 029C:0126       EMS_HardwareInfo
 029C:0130       EMS_DriverType
 029C:0132       EMM_DriverAPI
 029C:0136       EMS_Exchange
 029C:0138       EMS_Result
 029C:0146       SelfAddr
 029C:014A       BiosConfigTable
 029C:014E       Input
 029C:024E       Output
 029C:034E       SaveInt00
 029C:0352       SaveInt02
 029C:0356       SaveInt1B
 029C:035A       SaveInt21
 029C:035E       SaveInt23
 029C:0362       SaveInt24
 029C:0366       SaveInt34
 029C:036A       SaveInt35
 029C:036E       SaveInt36
 029C:0372       SaveInt37
 029C:0376       SaveInt38
 029C:037A       SaveInt39
 029C:037E       SaveInt3A
 029C:0382       SaveInt3B
 029C:0386       SaveInt3C
 029C:038A       SaveInt3D
 029C:038E       SaveInt3E
 029C:0392       SaveInt3F
 029C:0396       SaveInt75

Line numbers for PROGRAM(TEST_XMS.PAS) segment PROGRAM

    28 0000:0000    29 0000:000E    30 0000:0022    31 0000:0033
    34 0000:0039    35 0000:0048    36 0000:0087    39 0000:008D
    40 0000:009C    41 0000:00DF    44 0000:026F    45 0000:027E
    46 0000:02AF    48 0000:02B9    50 0000:02EA    52 0000:031F
    54 0000:034E    56 0000:037D    58 0000:03B0    60 0000:03E7
    62 0000:041E    65 0000:0455    69 0000:0458    70 0000:0462
    71 0000:047D    75 0000:047F    76 0000:0489    80 0000:071D
    81 0000:072C    82 0000:073B    83 0000:0756    84 0000:0787
    86 0000:0791    88 0000:07C6    90 0000:07F5    92 0000:0826
    94 0000:0865    96 0000:08A6    98 0000:08CF   100 0000:08FA
   102 0000:0923   104 0000:094E   106 0000:0986   107 0000:09AF
   109 0000:09D8   111 0000:0A01   114 0000:0A31   115 0000:0A38
   116 0000:0A3D   117 0000:0A44   118 0000:0A47   122 0000:0A83
   123 0000:0A8D   124 0000:0AC0   126 0000:0AC2   127 0000:0AE5
   128 0000:0AE8   129 0000:0AEB   130 0000:0AF4   131 0000:0AF7

Line numbers for TKeyb(TKEYB.PAS) segment TKeyb

    95 00B0:0000    96 00B0:000A    97 00B0:000D    98 00B0:0010
    99 00B0:0023   100 00B0:0036   101 00B0:0049   103 00B0:0056
   106 00B0:0058   107 00B0:0062   108 00B0:0065

Line numbers for TKeyb(TKEYB.ASM) segment TKeyb

    48 00B0:0067    49 00B0:0068    50 00B0:0069    51 00B0:006A
    52 00B0:006C    53 00B0:006E    54 00B0:0072    55 00B0:0074
    56 00B0:0076    57 00B0:007A    58 00B0:007C    59 00B0:007E
    60 00B0:0081    62 00B0:0084    64 00B0:0089    65 00B0:008C
    66 00B0:008E    67 00B0:0092    68 00B0:0095    69 00B0:0099
    70 00B0:009E    72 00B0:00A1    73 00B0:00A6    75 00B0:00A9
    77 00B0:00AE    78 00B0:00AF    79 00B0:00B0    80 00B0:00B1
    85 00B0:00B2    86 00B0:00B4    87 00B0:00B6    92 00B0:00B7
    93 00B0:00B9    94 00B0:00BB    99 00B0:00BC   100 00B0:00BE
   101 00B0:00C0   106 00B0:00C1   107 00B0:00C3   108 00B0:00C5
   113 00B0:00C6   114 00B0:00C8   115 00B0:00CA   116 00B0:00CC
   121 00B0:00CD   122 00B0:00CF   123 00B0:00D1   124 00B0:00D3
   130 00B0:00D4   131 00B0:00D6   132 00B0:00D8   133 00B0:00DC
   134 00B0:00DE   135 00B0:00E0   137 00B0:00E2   142 00B0:00E3
   143 00B0:00E5   144 00B0:00E7   145 00B0:00EB   146 00B0:00ED
   147 00B0:00EF   148 00B0:00F1   150 00B0:00F4   152 00B0:00F6
   159 00B0:00F7   160 00B0:00F9   161 00B0:00FC   162 00B0:0100
   163 00B0:0104   164 00B0:0106

Line numbers for TStrings(TSTRINGS.PAS) segment TStrings

   167 00C1:0000   168 00C1:000F   169 00C1:0057   173 00C1:005B
   174 00C1:006A   175 00C1:0097   189 00C1:009D   190 00C1:00AC
   191 00C1:00E1   196 00C1:00E5   197 00C1:00EF

Line numbers for TXms(TXMS.PAS) segment TXms

   355 00D1:0000   356 00D1:000A   357 00D1:000E   358 00D1:0012
   359 00D1:001A   360 00D1:0027   361 00D1:0034

Line numbers for TXms(TXMS.ASM) segment TXms

   218 00D1:0062   219 00D1:0067   220 00D1:006E   221 00D1:0074
   222 00D1:0078   223 00D1:007C   224 00D1:0081   225 00D1:0083
   226 00D1:0084   227 00D1:0087   228 00D1:008B   229 00D1:008F
   230 00D1:0094   232 00D1:0097   234 00D1:009E   236 00D1:00A3
   242 00D1:00A4   243 00D1:00A9   244 00D1:00AC   245 00D1:00AE
   246 00D1:00B0   247 00D1:00B4   248 00D1:00B9   249 00D1:00BC
   250 00D1:00BE   251 00D1:00C2   252 00D1:00C6   253 00D1:00C8
   254 00D1:00CC   255 00D1:00D0   256 00D1:00D3   257 00D1:00D7
   258 00D1:00DA   259 00D1:00DC   260 00D1:00DE   261 00D1:00E2
   262 00D1:00E8   263 00D1:00EE   265 00D1:00F1   266 00D1:00F5
   268 00D1:00F9   274 00D1:00FA   275 00D1:00FC   276 00D1:00FF
   282 00D1:0100   283 00D1:0102   284 00D1:0104   285 00D1:0108
   286 00D1:010B   292 00D1:010E   293 00D1:0110   294 00D1:0113
   299 00D1:0114   300 00D1:0116   301 00D1:0119   306 00D1:011A
   307 00D1:011C   308 00D1:011F   313 00D1:0120   314 00D1:0122
   315 00D1:0125   320 00D1:0126   321 00D1:0128   322 00D1:012B
   329 00D1:012C   330 00D1:012E   331 00D1:0131   332 00D1:0133
   337 00D1:0134   338 00D1:0136   339 00D1:0139   347 00D1:013A
   348 00D1:013C   349 00D1:013E   350 00D1:0142   351 00D1:0145
   352 00D1:0147   358 00D1:014A   359 00D1:014C   360 00D1:014E
   361 00D1:0152   362 00D1:0155   369 00D1:0158   370 00D1:015A
   371 00D1:015C   372 00D1:0160   373 00D1:0164   374 00D1:0167
   380 00D1:016A   381 00D1:016C   382 00D1:016E   383 00D1:0172
   384 00D1:0175   385 00D1:0177   391 00D1:017A   392 00D1:017C
   393 00D1:017E   394 00D1:0182   395 00D1:0185   401 00D1:0188
   402 00D1:018A   403 00D1:018C   404 00D1:0190   405 00D1:0193
   406 00D1:0195   412 00D1:0198   413 00D1:019A   414 00D1:019C
   415 00D1:01A0   416 00D1:01A3   417 00D1:01A5   423 00D1:01A8
   424 00D1:01AA   425 00D1:01AC   426 00D1:01B0   427 00D1:01B3
   428 00D1:01B5   435 00D1:01B8   436 00D1:01BA   437 00D1:01BC
   438 00D1:01C0   439 00D1:01C3   440 00D1:01C5   446 00D1:01C8
   447 00D1:01CA   448 00D1:01CC   449 00D1:01D0   450 00D1:01D3
   457 00D1:01D6   458 00D1:01D8   459 00D1:01DA   460 00D1:01DE
   461 00D1:01E2   462 00D1:01E5   467 00D1:01E8   468 00D1:01EA
   469 00D1:01ED   470 00D1:01F2   471 00D1:01F9   472 00D1:01FF
   473 00D1:0203   474 00D1:0207   475 00D1:020C   476 00D1:020E
   477 00D1:020F   478 00D1:0211   479 00D1:0214   480 00D1:0216
   482 00D1:0219   484 00D1:0220   486 00D1:0225   496 00D1:0226
   497 00D1:0228   498 00D1:022D   499 00D1:0233   500 00D1:0237
   501 00D1:023C   502 00D1:0240   503 00D1:0245   504 00D1:024A
   505 00D1:0250   506 00D1:0255   507 00D1:025B   508 00D1:025D
   509 00D1:025E   510 00D1:025F   511 00D1:0260   512 00D1:0263
   513 00D1:0266   514 00D1:0267   519 00D1:026A   520 00D1:026F
   521 00D1:0276   522 00D1:027C   523 00D1:0280   524 00D1:0284
   525 00D1:028A   526 00D1:028C   527 00D1:028E   528 00D1:028F
   529 00D1:0293   530 00D1:0298   531 00D1:029B   533 00D1:029F
   534 00D1:02A3   536 00D1:02A9   541 00D1:02AA   542 00D1:02AB
   543 00D1:02AE   544 00D1:02B1   545 00D1:02B3   546 00D1:02B7
   547 00D1:02B8   552 00D1:02B9   553 00D1:02BC   554 00D1:02C1
   555 00D1:02C3   560 00D1:02C4   561 00D1:02C5   562 00D1:02C8
   563 00D1:02CD   564 00D1:02D0   565 00D1:02D3   566 00D1:02D6
   567 00D1:02D8   568 00D1:02D9   569 00D1:02DC   570 00D1:02E1
   571 00D1:02E6   577 00D1:02E7   578 00D1:02EA   579 00D1:02EC
   580 00D1:02EF   581 00D1:02F3   582 00D1:02F5   583 00D1:02F9
   584 00D1:02FB   586 00D1:02FF   587 00D1:0300   589 00D1:0301
   590 00D1:0303   591 00D1:0304   596 00D1:0305   597 00D1:0307
   598 00D1:030A   599 00D1:030D   600 00D1:030F   601 00D1:0312
   602 00D1:0316   603 00D1:0318   604 00D1:031A   605 00D1:031B
   607 00D1:031C   608 00D1:031D   613 00D1:031E   614 00D1:0323
   615 00D1:0326   616 00D1:032A   617 00D1:032F   618 00D1:0332
   622 00D1:0336   623 00D1:033B   625 00D1:033E   626 00D1:0342
   627 00D1:0346   632 00D1:0347   633 00D1:0349   634 00D1:034B
   635 00D1:034E   636 00D1:0352   637 00D1:0354   638 00D1:0357
   639 00D1:0358   640 00D1:0359   641 00D1:035C   642 00D1:035E
   643 00D1:0361   644 00D1:0364   645 00D1:0367   646 00D1:0368
   647 00D1:036D   652 00D1:036E   653 00D1:0370   654 00D1:0372
   655 00D1:0376   660 00D1:0377   661 00D1:0379   662 00D1:037B
   663 00D1:037F   668 00D1:0380   669 00D1:0382   670 00D1:0384
   671 00D1:0387   676 00D1:0388   677 00D1:038A   678 00D1:038C
   679 00D1:038E   680 00D1:0392   686 00D1:0393   687 00D1:0395
   688 00D1:039A   689 00D1:039E   690 00D1:03A0   691 00D1:03A2
   692 00D1:03A6   694 00D1:03A8   699 00D1:03AB   700 00D1:03AD
   701 00D1:03AF   702 00D1:03B1   703 00D1:03B5   708 00D1:03B6
   709 00D1:03B9   710 00D1:03BE   711 00D1:03C2   712 00D1:03C5
   713 00D1:03C8   714 00D1:03CB   715 00D1:03CF   716 00D1:03D2
   717 00D1:03D5   718 00D1:03DA   719 00D1:03DC   721 00D1:03DE
   726 00D1:03DF   727 00D1:03E1   728 00D1:03E5   729 00D1:03E7
   734 00D1:03E8   735 00D1:03EA   736 00D1:03EE   737 00D1:03F0
   743 00D1:03F1   744 00D1:03F3   745 00D1:03F5   746 00D1:03F9
   747 00D1:03FD   748 00D1:03FF   754 00D1:0402   755 00D1:0404
   756 00D1:0406   757 00D1:040A   758 00D1:040E   759 00D1:0410
   767 00D1:0413   768 00D1:0415   769 00D1:0417   770 00D1:041B
   771 00D1:041F   772 00D1:0423   773 00D1:0427   779 00D1:042A
   780 00D1:042C   781 00D1:042E   782 00D1:0432   783 00D1:0436
   789 00D1:0439   790 00D1:043B   791 00D1:043F   792 00D1:0443
   793 00D1:0446   794 00D1:0448   795 00D1:044A   796 00D1:044E
   797 00D1:0450   804 00D1:0453   805 00D1:0455   806 00D1:0457
   807 00D1:045B   808 00D1:045F   809 00D1:0463   815 00D1:0466
   816 00D1:0468   817 00D1:046A   818 00D1:046C   819 00D1:0470
   820 00D1:0474   827 00D1:0477   828 00D1:0479   829 00D1:047B
   830 00D1:047D   831 00D1:0481   832 00D1:0485   833 00D1:0489
   840 00D1:048C   841 00D1:048E   842 00D1:0490   843 00D1:0492
   844 00D1:0496   845 00D1:049A   846 00D1:049E   853 00D1:04A1
   854 00D1:04A3   855 00D1:04A5   856 00D1:04A7   857 00D1:04AB
   858 00D1:04AF   859 00D1:04B3   865 00D1:04B6   866 00D1:04B8
   867 00D1:04B9   868 00D1:04BB   869 00D1:04BD   870 00D1:04C1
   871 00D1:04C2   872 00D1:04C5   873 00D1:04C7   874 00D1:04C8
   875 00D1:04CF   876 00D1:04D5   877 00D1:04D9   878 00D1:04DD
   879 00D1:04E3   880 00D1:04E5   881 00D1:04E6   882 00D1:04EA
   883 00D1:04EF   884 00D1:04F2   885 00D1:04F6   886 00D1:04F9
   888 00D1:04FD   889 00D1:0501   891 00D1:0507   893 00D1:050A
   894 00D1:050C   906 00D1:050F   907 00D1:0511   908 00D1:0516
   909 00D1:051B   910 00D1:051F   911 00D1:0523   912 00D1:0527
   913 00D1:052B   914 00D1:0530   915 00D1:0535   916 00D1:0539
   917 00D1:053D   918 00D1:0541   919 00D1:0545   920 00D1:054A
   921 00D1:054F   922 00D1:0550   923 00D1:0552   924 00D1:0554
   925 00D1:0557   926 00D1:055A   927 00D1:055E   928 00D1:055F
   933 00D1:0562   934 00D1:0564   935 00D1:0568   940 00D1:0569
   941 00D1:056B   942 00D1:056D   943 00D1:0571   944 00D1:0573
   950 00D1:0574   951 00D1:0576   952 00D1:0578   953 00D1:057A
   954 00D1:057E   955 00D1:0582   956 00D1:0584   965 00D1:0587
   966 00D1:0589   967 00D1:058B   968 00D1:058F   969 00D1:0593
   970 00D1:0597   971 00D1:059B   972 00D1:059F   978 00D1:05A2
   979 00D1:05A7   980 00D1:05AD   981 00D1:05B1   982 00D1:05B6
   984 00D1:05B9   985 00D1:05C0   986 00D1:05C7   987 00D1:05CD
   989 00D1:05D2   994 00D1:05D3   995 00D1:05D8   996 00D1:05DE
   997 00D1:05E2   998 00D1:05E7  1000 00D1:05EA  1001 00D1:05F1
  1002 00D1:05F8  1003 00D1:05FE  1005 00D1:0603  1010 00D1:0604
  1011 00D1:0606  1012 00D1:0609  1013 00D1:060B  1019 00D1:060C
  1020 00D1:060E  1021 00D1:0612  1022 00D1:0615  1027 00D1:0616
  1028 00D1:0618  1029 00D1:061A  1030 00D1:061D  1036 00D1:061E
  1037 00D1:0620  1038 00D1:0622  1039 00D1:0626  1040 00D1:0629
  1045 00D1:062C  1046 00D1:062E  1047 00D1:0631  1052 00D1:0632
  1053 00D1:0634  1054 00D1:0637  1059 00D1:0638  1060 00D1:063A
  1061 00D1:063D  1067 00D1:063E  1068 00D1:0640  1069 00D1:0642
  1070 00D1:0646  1071 00D1:0649  1076 00D1:064C  1077 00D1:064E
  1078 00D1:0651  1083 00D1:0652  1084 00D1:0655  1085 00D1:0658
  1086 00D1:065B  1087 00D1:065E  1088 00D1:0660  1089 00D1:0664
  1090 00D1:0668  1091 00D1:066A  1093 00D1:066D  1095 00D1:066F
  1100 00D1:0670  1101 00D1:0673  1102 00D1:0676  1103 00D1:0679
  1104 00D1:067C  1105 00D1:067E  1106 00D1:0680  1107 00D1:0684
  1108 00D1:0688  1110 00D1:068A  1118 00D1:068B  1119 00D1:068D
  1120 00D1:068E  1121 00D1:0691  1122 00D1:0695  1123 00D1:0699
  1124 00D1:069E  1125 00D1:06A1  1126 00D1:06A2  1132 00D1:06A5
  1133 00D1:06A7  1134 00D1:06AA  1135 00D1:06AE  1136 00D1:06B1
  1143 00D1:06B4  1144 00D1:06B6  1145 00D1:06B9  1146 00D1:06BD
  1147 00D1:06C1  1148 00D1:06C4  1155 00D1:06C7  1156 00D1:06C9
  1157 00D1:06CC  1158 00D1:06D0  1159 00D1:06D4  1160 00D1:06D7
  1161 00D1:06D9  1170 00D1:06DC  1171 00D1:06DE  1172 00D1:06E2
  1173 00D1:06E6  1174 00D1:06EA  1175 00D1:06EC  1176 00D1:06EF
  1177 00D1:06F2  1182 00D1:06F5  1183 00D1:06F8  1184 00D1:06FB
  1185 00D1:06FD  1186 00D1:06FF  1192 00D1:0700  1193 00D1:0702
  1194 00D1:0705  1195 00D1:0709  1196 00D1:070C  1202 00D1:070F
  1203 00D1:0711  1204 00D1:0714  1205 00D1:0718  1206 00D1:071B
  1212 00D1:071E  1213 00D1:0720  1214 00D1:0723  1215 00D1:0727
  1216 00D1:072A  1222 00D1:072D  1223 00D1:072F  1224 00D1:0732
  1225 00D1:0736  1226 00D1:0739  1231 00D1:073C  1232 00D1:073F
  1233 00D1:0742  1234 00D1:0744  1240 00D1:0745  1241 00D1:0747
  1242 00D1:074A  1243 00D1:074D  1244 00D1:0751  1245 00D1:0754
  1246 00D1:0758  1247 00D1:075C  1253 00D1:075F  1254 00D1:0761
  1255 00D1:0764  1256 00D1:0767  1261 00D1:076A  1262 00D1:076D
  1263 00D1:0770  1264 00D1:0772  1265 00D1:0774

Line numbers for TSystem(TSYSTEM.PAS) segment TSystem

   231 0149:0000   276 0149:0001   277 0149:000B   278 0149:0011
   283 0149:001A   284 0149:0029   285 0149:0058   290 0149:0065
   291 0149:0074   292 0149:00A3   294 0149:00CA   295 0149:00D9
   296 0149:0124   297 0149:014E   298 0149:0178   299 0149:01A1
   300 0149:01BB   301 0149:01C3   302 0149:01D3   303 0149:01FC
   304 0149:020C   305 0149:0212   309 0149:023F   310 0149:0249
   311 0149:024C   313 0149:0253   314 0149:026E   316 0149:0276
   317 0149:0279   318 0149:027C   319 0149:027F   320 0149:0282
   321 0149:0291   324 0149:0293   325 0149:029D   326 0149:02A0

Line numbers for TSystem(TSYSTEM.ASM) segment TSystem

    70 0149:02C5    71 0149:02C7    72 0149:02CB    73 0149:02CF
    74 0149:02D0    75 0149:02D5    76 0149:02D8    85 0149:02DB
    86 0149:02DD    87 0149:02E1    88 0149:02E5    89 0149:02E9
    90 0149:02ED    91 0149:02F1    92 0149:02F3    93 0149:02F4
    94 0149:02F7    95 0149:02F9    96 0149:02FB   105 0149:02FE
   106 0149:0300   107 0149:0304   108 0149:0308   109 0149:030C
   110 0149:030E   111 0149:030F   112 0149:0313   113 0149:0314
   114 0149:0315   115 0149:0316   116 0149:0319   117 0149:031C
   118 0149:031D   119 0149:0320   120 0149:0322   130 0149:0325
   131 0149:0327   132 0149:0328   133 0149:032C   134 0149:0330
   135 0149:0334   136 0149:0338   137 0149:0339   139 0149:033B
   140 0149:033D   141 0149:0340   142 0149:0344   143 0149:0347
   144 0149:034A   145 0149:034C   146 0149:034F   147 0149:0351
   148 0149:0355   149 0149:0356   151 0149:0358   152 0149:0359
   162 0149:035C   163 0149:035E   164 0149:035F   165 0149:0363
   166 0149:0367   167 0149:036B   168 0149:036C   169 0149:036D
   170 0149:0370   171 0149:0373   172 0149:0374   173 0149:0377
   174 0149:0379   175 0149:037A   183 0149:037D   184 0149:037F
   185 0149:0380   186 0149:0384   187 0149:0388   188 0149:038B
   189 0149:038D   190 0149:038E   191 0149:038F   199 0149:0392
   200 0149:0394   201 0149:0395   202 0149:0399   203 0149:039D
   204 0149:03A0   205 0149:03A2   206 0149:03A3   207 0149:03A4
   215 0149:03A7   216 0149:03A9   217 0149:03AA   218 0149:03AE
   219 0149:03B2   220 0149:03B6   221 0149:03B9   222 0149:03BB
   223 0149:03BC   232 0149:03BF   233 0149:03C1   234 0149:03C2
   235 0149:03C6   236 0149:03C8   237 0149:03CC   238 0149:03D0
   239 0149:03D1   240 0149:03D3   241 0149:03D5   243 0149:03D6
   244 0149:03D9   245 0149:03DB   246 0149:03DE   247 0149:03E1
   248 0149:03E4   249 0149:03E6   250 0149:03E7   252 0149:03EB
   253 0149:03ED   254 0149:03F0   256 0149:03F2   257 0149:03F3
   267 0149:03F6   268 0149:03F8   269 0149:03F9   270 0149:03FD
   271 0149:03FF   272 0149:0403   273 0149:0407   274 0149:0409
   275 0149:040D   276 0149:0411   277 0149:0412   278 0149:0413
   280 0149:0415   281 0149:0417   282 0149:041B   283 0149:041D
   284 0149:0421   285 0149:0422   286 0149:0423   287 0149:0424
   288 0149:0426   289 0149:0428   290 0149:0429   291 0149:042A
   292 0149:042B   294 0149:042D   295 0149:042E   296 0149:0430
   297 0149:0432   298 0149:0434   300 0149:0437   301 0149:043A
   303 0149:043D   304 0149:043E   311 0149:0441   312 0149:0443
   313 0149:0447   314 0149:044A   321 0149:044D   322 0149:044F
   323 0149:0453   324 0149:0456   331 0149:0459   332 0149:045B
   333 0149:045F   334 0149:0462   335 0149:0466   343 0149:0469
   344 0149:046B   345 0149:046F   346 0149:0473   347 0149:0474
   355 0149:0477   356 0149:0479   357 0149:047D   358 0149:0481
   359 0149:0482   367 0149:0485   368 0149:0487   369 0149:048C
   370 0149:0490   371 0149:0492   378 0149:0495   379 0149:0497
   380 0149:049B   381 0149:049C   389 0149:049F   390 0149:04A1
   391 0149:04A5   392 0149:04A9   393 0149:04AA   401 0149:04AD
   402 0149:04AF   403 0149:04B3   404 0149:04B4   405 0149:04B5
   406 0149:04B6   415 0149:04B9   416 0149:04BB   417 0149:04BF
   418 0149:04C3   419 0149:04C7   420 0149:04C8   426 0149:04CB
   427 0149:04CC   428 0149:04CE   429 0149:04D0   430 0149:04D2
   431 0149:04D4   432 0149:04D6   433 0149:04D8   434 0149:04DA
   435 0149:04DB   436 0149:04DE   442 0149:04DF   443 0149:04E1
   444 0149:04E3   445 0149:04E7   446 0149:04EB   453 0149:04EC
   454 0149:04EE   455 0149:04EF   456 0149:04F3   457 0149:04F7
   458 0149:04F8   459 0149:04F9   460 0149:04FB   461 0149:04FD
   462 0149:04FF   463 0149:0502   464 0149:0503   471 0149:0506
   472 0149:0508   473 0149:0509   474 0149:050D   475 0149:0511
   476 0149:0512   477 0149:0513   478 0149:0515   479 0149:0517
   480 0149:0519   481 0149:051C   482 0149:051D   489 0149:0520
   490 0149:0522   491 0149:0523   492 0149:0527   493 0149:052B
   494 0149:052C   495 0149:052D   496 0149:052F   497 0149:0531
   498 0149:0533   499 0149:0536   500 0149:053A   501 0149:053B
   509 0149:053E   510 0149:0540   511 0149:0541   512 0149:0545
   513 0149:0549   514 0149:054A   515 0149:054B   516 0149:054D
   517 0149:054F   518 0149:0551   519 0149:0555   520 0149:0557
   521 0149:0558   529 0149:055B   530 0149:055D   531 0149:055E
   532 0149:0562   533 0149:0566   534 0149:0567   535 0149:0568
   536 0149:056A   537 0149:056C   538 0149:056E   539 0149:0572
   540 0149:0574   541 0149:0575   549 0149:0578   550 0149:057A
   551 0149:057B   552 0149:057F   553 0149:0583   554 0149:0584
   555 0149:0585   556 0149:0587   557 0149:0589   558 0149:058B
   559 0149:0590   560 0149:0593   561 0149:0594   569 0149:0597
   570 0149:0599   571 0149:059B   572 0149:059F   573 0149:05A1
   574 0149:05A5   575 0149:05A9   576 0149:05AA   577 0149:05AC
   578 0149:05AF   579 0149:05B1   580 0149:05B5   581 0149:05B6
   582 0149:05B8   584 0149:05BA   585 0149:05BC   592 0149:05BF
   593 0149:05C1   594 0149:05C5   595 0149:05C9   596 0149:05CB
   597 0149:05CD   608 0149:05D0   609 0149:05D3   611 0149:05D4
   612 0149:05D5   613 0149:05D7   614 0149:05D9   615 0149:05DA
   616 0149:05DC   617 0149:05DE   618 0149:05DF   619 0149:05E1
   621 0149:05E3   622 0149:05E4   628 0149:05E6   629 0149:05E9
   630 0149:05EB   631 0149:05F1   632 0149:05F4   633 0149:05F6
   639 0149:05F7   640 0149:05FA   641 0149:05FC   642 0149:0602
   643 0149:0605   644 0149:0607   650 0149:0608   651 0149:0609
   652 0149:060A   653 0149:060B   654 0149:060C   655 0149:060F
   656 0149:0612   657 0149:0613   658 0149:0614   659 0149:0615
   660 0149:0616   661 0149:0617   662 0149:0618   663 0149:061B
   664 0149:061E   665 0149:0622   666 0149:0624   668 0149:0627
   669 0149:0629   670 0149:062D   671 0149:062F   673 0149:0632
   674 0149:0634   675 0149:0636   676 0149:0638   677 0149:063B
   678 0149:063C   679 0149:0642   680 0149:0644   681 0149:0646
   682 0149:0648   683 0149:064A   684 0149:064C   685 0149:064D
   686 0149:0653   687 0149:065A   688 0149:065D   689 0149:0661
   690 0149:0663   692 0149:0666   693 0149:0667   694 0149:0669
   695 0149:066B   696 0149:066D   697 0149:0673   698 0149:0675
   699 0149:0677   700 0149:0679   701 0149:067B   702 0149:067D
   703 0149:067E   704 0149:0684   705 0149:068B   706 0149:068E
   707 0149:0692   708 0149:0694   710 0149:0697   711 0149:069C
   713 0149:06A4   714 0149:06AA   715 0149:06AE   716 0149:06AF
   717 0149:06B2   718 0149:06B4   719 0149:06B6   721 0149:06BE
   722 0149:06BF   723 0149:06C2   724 0149:06C4   725 0149:06C7
   726 0149:06C9   727 0149:06CC   728 0149:06CE   730 0149:06CF
   731 0149:06D2   736 0149:06D3   737 0149:06D4   738 0149:06D5
   739 0149:06D6   740 0149:06D8   741 0149:06DA   742 0149:06DB
   743 0149:06DF   744 0149:06E4   745 0149:06EB   746 0149:06F2
   747 0149:06F3   748 0149:06F8   749 0149:06FC   750 0149:06FD
   751 0149:06FE   752 0149:06FF   756 0149:0700   757 0149:0701
   758 0149:0702   759 0149:0703   760 0149:0708   761 0149:070D
   762 0149:070E   763 0149:0710   764 0149:0712   765 0149:0713
   766 0149:0718   767 0149:071D   768 0149:071E   769 0149:071F
   770 0149:0720   771 0149:0721   772 0149:0722   776 0149:0723
   777 0149:0724   778 0149:0725   779 0149:0729   780 0149:072B
   781 0149:072E   782 0149:072F   783 0149:0730   788 0149:0731
   789 0149:0732   790 0149:0733   791 0149:0734   792 0149:0736
   793 0149:0738   794 0149:0739   795 0149:073B   796 0149:073F
   797 0149:0743   798 0149:0745   799 0149:0747   800 0149:074B
   801 0149:0750   802 0149:0757   803 0149:075E   804 0149:075F
   805 0149:0764   806 0149:0768   807 0149:0769   808 0149:076A
   809 0149:076B   813 0149:076C   814 0149:076D   815 0149:076E
   816 0149:076F   817 0149:0774   818 0149:0779   819 0149:077A
   820 0149:077C   821 0149:077E   822 0149:077F   823 0149:0784
   824 0149:0789   825 0149:078B   826 0149:0790   827 0149:0794
   828 0149:0797   829 0149:0799   830 0149:079B   831 0149:079C
   832 0149:079D   833 0149:079E   834 0149:079F   835 0149:07A0
   843 0149:07A1   844 0149:07A2   845 0149:07A3   846 0149:07A6
   847 0149:07A8   848 0149:07AA   849 0149:07AC   850 0149:07AF
   851 0149:07B1   852 0149:07B3   853 0149:07B5   854 0149:07B9
   855 0149:07BB   856 0149:07BD   857 0149:07C1   858 0149:07C3
   859 0149:07C7   860 0149:07C8   861 0149:07CA   862 0149:07CC
   863 0149:07D0   864 0149:07D2   865 0149:07D6   866 0149:07D8
   867 0149:07DA   868 0149:07DC   869 0149:07DF   871 0149:07E2
   873 0149:07E5   874 0149:07E7   875 0149:07E9   876 0149:07EB
   877 0149:07ED   878 0149:07EF   879 0149:07F1   880 0149:07F3
   881 0149:07F5   882 0149:07F7   883 0149:07F9   884 0149:07FB
   885 0149:07FD   886 0149:07FF   887 0149:0801   888 0149:0803
   889 0149:0804   891 0149:0806   892 0149:0808   893 0149:080C
   894 0149:080E   895 0149:0810   896 0149:0812   897 0149:0814
   899 0149:0815   900 0149:0817   901 0149:0819   902 0149:081D
   903 0149:081F   904 0149:0823   905 0149:0825   906 0149:0827
   907 0149:0829   908 0149:082C   909 0149:082E   910 0149:0830
   911 0149:0832   912 0149:0834   913 0149:0839   915 0149:083D
   916 0149:0841   917 0149:0843   918 0149:0845   919 0149:0847
   920 0149:0849   921 0149:084B   923 0149:084D   924 0149:084E
   925 0149:084F   926 0149:0852

Program entry point at 0000:0AC2
