
 Start  Stop   Length Name               Class

 00000H 001BEH 001BFH SHOW_DIFFERENT_HARDWARE_AND_SOFTWARE_INFORMATION CODE
 001C0H 001F5H 00036H TDisk              CODE
 00200H 0035AH 0015BH TStrings           CODE
 00360H 00AD4H 00775H TXms               CODE
 00AE0H 010AAH 005CBH TDos               CODE
 010B0H 01902H 00853H TSystem            CODE
 01910H 02595H 00C86H System             CODE
 025A0H 02965H 003C6H DATA               DATA
 02970H 0696FH 04000H STACK              STACK
 06970H 06970H 00000H HEAP               HEAP

  Address         Publics by Value

 0000:0000       LowCaseString
 0000:006C       IdentifityCommand
 0000:00FA       Init_Status
 0000:018C       @
 001C:0027       @
 0020:0000       Russian_LowCase
 0020:0033       @
 0020:003F       StrLen
 0020:0055       StrEnd
 0020:006C       StrCopy
 0020:008F       StrMove
 0020:00B7       StrPCopy
 0020:00D6       StrUpper
 0020:0104       StrLower
 0020:0131       StrPas
 0036:0000       @
 0036:00A4       InitTXms
 0036:00FA       ReleaseHMA
 0036:0100       AllocateHMA
 0036:010E       GlobalEnableA20
 0036:0114       GlobalDisableA20
 0036:011A       LocalEnableA20
 0036:0120       LocalDisableA20
 0036:0126       QueryA20
 0036:012C       GetFreeXMS
 0036:0134       GetMaxFreeXMSBlock
 0036:013A       AllocateEMB
 0036:014A       ReleaseEMB
 0036:0158       ReallocateEMB
 0036:016A       LockEMB
 0036:017A       UnlockEMB
 0036:0188       GetEMBSize
 0036:0198       GetEMBLockCount
 0036:01A8       GetEMBFreeHandles
 0036:01B8       AllocateUMB
 0036:01C8       ReleaseUMB
 0036:01D6       ReallocateUMB
 0036:01E8       UMBMaxAvail
 0036:0226       MoveEMBUsers
 0036:03B6       InitTEms
 0036:03DF       GetFreeEMSPages
 0036:03E8       GetActiveEMSHandles
 0036:03F1       AllocateEMS
 0036:0402       ReleaseEMS
 0036:0413       MapEMSPages
 0036:042A       GetEMSHandlePages
 0036:0439       GetEMSHandlesTable
 0036:0453       ReallocateEMS
 0036:0466       GetEMS_HandleAttr
 0036:0477       SetEMS_HandleAttr
 0036:048C       GetEMS_HandleName
 0036:04A1       SetEMS_HandleName
 0036:04B6       FindEMS_Handle
 0036:050F       MoveEMSUsers
 0036:0562       WarmBootPrepare
 0036:0569       GetFreeRawPages
 0036:0604       EMM386_GetState
 0036:060C       EMM386_SetState
 0036:0616       EMM386_GetWeitekSupport
 0036:061E       EMM386_SetWeitekSupport
 0036:062C       EMM386_PrintReport
 0036:0632       EMM386_PrintCopyright
 0036:0638       QEMM_GetState
 0036:063E       QEMM_SetState
 0036:064C       QEMM_GetVersion
 0036:0652       QEMM_GetHiramChain
 0036:0670       QEMM_GetManifestPresent
 0036:068B       QEMM_CopyStealthRoms
 0036:06A5       QEMM_UntrappedIORead
 0036:06B4       QEMM_UntrappedIOWrite
 0036:06C7       QEMM_UntrappedIOReadIndexed
 0036:06DC       QEMM_UntrappedIOWriteIndexed
 0036:06F5       QEMM_GetIOCallback
 0036:0700       QEMM_SetIOCallback
 0036:070F       QEMM_GetPortTrap
 0036:071E       QEMM_SetPortTrap
 0036:072D       QEMM_ClearPortTrap
 0036:073C       QEMM_GetStealthCount
 0036:0745       QEMM_GetInfo
 0036:075F       QEMM_GetMemoryStatistics
 0036:076A       QEMM_GetStealthList
 00AE:0021       @
 00AE:00CE       DiskReset
 00AE:00D4       SelectDrive
 00AE:00E2       GetDefaultDrive
 00AE:00E8       SetDiskTransferArea
 00AE:011B       SetInterruptVector
 00AE:0183       SetVerifyFlag
 00AE:0191       GetDiskTransferArea
 00AE:01EB       GetBootDrive
 00AE:0204       GetInterruptVector
 00AE:0237       GetSwitchChar
 00AE:0240       SetSwitchChar
 00AE:024F       CreateDirectory
 00AE:0253       RemoveDirectory
 00AE:0257       ChangeDirectory
 00AE:0267       CreateFile
 00AE:0280       OpenFile
 00AE:0298       CloseFile
 00AE:02A6       ReadFile
 00AE:02AA       WriteFile
 00AE:02C9       DeleteFile
 00AE:02D9       SeekFile
 00AE:02ED       GetFileAttributes
 00AE:02FE       SetFileAttributes
 00AE:0313       DuplicateHandle
 00AE:0321       ForceDuplicateHandle
 00AE:0347       AllocateMemory
 00AE:0355       ReleaseMemory
 00AE:0365       ReallocateMemory
 00AE:0379       GetProgramExitCode
 00AE:037F       SetPSP_Address
 00AE:038D       GetPSP_Address
 00AE:03BC       GetVerifyFlag
 00AE:03D4       RenameFile
 00AE:03E8       GetFileDate
 00AE:03F9       GetFileTime
 00AE:040A       SetFileTimeDate
 00AE:04B4       GetCurrentPSP
 00AE:04BC       CapitalizeChar
 00AE:04CD       CapitalizeString
 00AE:04E2       CapitalizePChar
 00AE:0502       CommitFile
 00AE:0508       FflushFile
 00AE:0510       GetFreeHMA_Addr
 00AE:051A       HMA_MemAvail
 00AE:0524       AllocateHMA
 00AE:055A       GetEnvCount
 00AE:0587       EnvPChar
 010B:0000       DoNone
 010B:0293       @
 010B:02C5       FillDword
 010B:02DB       FillWord
 010B:02FE       FillByte
 010B:0325       Fill
 010B:035C       MovePtr
 010B:037D       SwapByte
 010B:0392       SwapWord
 010B:03A7       SwapLong
 010B:03BF       Swap
 010B:03F6       SearchPtr
 010B:0441       ReadMemoryByte
 010B:044D       ReadMemoryWord
 010B:0459       ReadMemoryDword
 010B:0469       WriteMemoryByte
 010B:0477       WriteMemoryWord
 010B:0485       WriteMemoryDword
 010B:0495       ReadPort
 010B:049F       WritePort
 010B:04AD       ReadIndexPort
 010B:04B9       WriteIndexPort
 010B:04EC       AbsReadMemoryByte
 010B:0506       AbsReadMemoryWord
 010B:0520       AbsReadMemoryDword
 010B:053E       AbsWriteMemoryByte
 010B:055B       AbsWriteMemoryWord
 010B:0578       AbsWriteMemoryDword
 010B:0597       CompareBuffersPtr
 010B:05BF       Delay
 010B:05D0       HardwareReboot
 010B:05E6       WarmReboot
 010B:05F7       ColdReboot
 025A:0002       cs_command_ShowHelp
 025A:000C       cs_command_ShowXmsInfo
 025A:0018       cs_command_ShowEmsInfo
 025A:0024       cs_command_ShowDosInfo
 025A:0030       cs_command_MemoryMap
 025A:003C       cs_command_MemoryDump
 025A:0046       cs_command_AboutProgram
 025A:0050       cs_command_SystemInfo
 025A:005C       cs_command_Exit
 025A:0066       cs_command_Quit
 025A:0070       cs_command_DeviceList
 025A:007C       cs_command_Options
 025A:008A       CpuType
 025A:008C       CpuSpeed
 025A:008E       CpuIDValid
 025A:008F       BiosType
 025A:0090       ExtendedMemorySize
 025A:0092       CpuVendor
 025A:009E       OvrCodeList
 025A:00A0       OvrHeapSize
 025A:00A2       OvrDebugPtr
 025A:00A6       OvrHeapOrg
 025A:00A8       OvrHeapPtr
 025A:00AA       OvrHeapEnd
 025A:00AC       OvrLoadList
 025A:00AE       OvrDosHandle
 025A:00B0       OvrEmsHandle
 025A:00B2       HeapOrg
 025A:00B6       HeapPtr
 025A:00BA       HeapEnd
 025A:00BE       FreeList
 025A:00C2       FreeZero
 025A:00C6       HeapError
 025A:00CA       ExitProc
 025A:00CE       ExitCode
 025A:00D0       ErrorAddr
 025A:00D4       PrefixSeg
 025A:00D6       StackLimit
 025A:00D8       InOutRes
 025A:00DA       RandSeed
 025A:00DE       SelectorInc
 025A:00E0       Seg0040
 025A:00E2       SegA000
 025A:00E4       SegB000
 025A:00E6       SegB800
 025A:00E8       Test8086
 025A:00E9       Test8087
 025A:00EA       FileMode
 025A:00EE       ds_StartString
 025A:00F2       ds_Command
 025A:00F6       ds_LastCommand
 025A:00FA       db_Exit
 025A:00FC       DiskResult
 025A:010A       XMS_Present
 025A:010C       XMS_HandlesTable
 025A:0110       XMS_Version
 025A:0112       XMS_Revision
 025A:0114       HMA_Present
 025A:0116       XMM_DriverAPI
 025A:011A       XMS_Result
 025A:0127       EMS_Present
 025A:0128       EMS_Version
 025A:012A       PageFrame
 025A:012C       TotalRawPages
 025A:012E       TotalEmsPages
 025A:0130       TotalEmsHandles
 025A:0132       EMS_HardwareInfo
 025A:013C       EMS_DriverType
 025A:013E       EMM_DriverAPI
 025A:0142       EMS_Exchange
 025A:0144       EMS_Result
 025A:0152       DosResult
 025A:0160       DosVersion
 025A:0162       SysVars
 025A:0166       InDosFlagPtr
 025A:016A       FileOpenMode
 025A:016C       PrefixSeg
 025A:016E       DosFlags
 025A:0170       SelfAddr
 025A:0174       BiosConfigTable
 025A:0178       Input
 025A:0278       Output
 025A:0378       SaveInt00
 025A:037C       SaveInt02
 025A:0380       SaveInt1B
 025A:0384       SaveInt21
 025A:0388       SaveInt23
 025A:038C       SaveInt24
 025A:0390       SaveInt34
 025A:0394       SaveInt35
 025A:0398       SaveInt36
 025A:039C       SaveInt37
 025A:03A0       SaveInt38
 025A:03A4       SaveInt39
 025A:03A8       SaveInt3A
 025A:03AC       SaveInt3B
 025A:03B0       SaveInt3C
 025A:03B4       SaveInt3D
 025A:03B8       SaveInt3E
 025A:03BC       SaveInt3F
 025A:03C0       SaveInt75

Line numbers for SHOW_DIFFERENT_HARDWARE_AND_SOFTWARE_INFORMATION(STATUS.PAS) segment SHOW_DIFFERENT_HARDWARE_AND_SOFTWARE_INFORMATION

    48 0000:0000    49 0000:000E    50 0000:0017    51 0000:002C
    52 0000:0056    59 0000:006C    60 0000:0092    61 0000:00A1
    62 0000:00B4    63 0000:00D4    65 0000:00DB    66 0000:00F6
    72 0000:00FA    73 0000:0109    74 0000:0117    75 0000:0123
    76 0000:0131    78 0000:0136    79 0000:0154    80 0000:0171
    81 0000:017A    82 0000:0183    83 0000:018A    88 0000:018C
    89 0000:01B4    90 0000:01B7

Line numbers for TDisk(TDISK.PAS) segment TDisk

   125 001C:0000   126 001C:000A   127 001C:0018   128 001C:0025
   130 001C:0027   131 001C:0031   132 001C:0034

Line numbers for TStrings(TSTRINGS.PAS) segment TStrings

   141 0020:0000   142 0020:000A   143 0020:000D   144 0020:000F
   145 0020:0011   146 0020:0013   147 0020:0015   148 0020:0017
   150 0020:0019   151 0020:001B   152 0020:001D   153 0020:001F
   154 0020:0021   155 0020:0023   157 0020:0025   158 0020:0027
   159 0020:0029   160 0020:002B   161 0020:002D   163 0020:002F
   196 0020:0033   197 0020:003D

Line numbers for TStrings(TSTRINGS.ASM) segment TStrings

    26 0020:003F    27 0020:0041    28 0020:0045    29 0020:0048
    30 0020:004A    31 0020:004B    32 0020:004D    33 0020:0050
    34 0020:0052    40 0020:0055    41 0020:0058    42 0020:005C
    43 0020:005F    44 0020:0061    45 0020:0062    46 0020:0064
    47 0020:0066    48 0020:0068    49 0020:0069    56 0020:006C
    57 0020:006E    58 0020:006F    59 0020:0073    60 0020:0076
    61 0020:0078    62 0020:0079    63 0020:007B    64 0020:007D
    65 0020:0081    66 0020:0085    67 0020:0087    68 0020:0089
    69 0020:008B    70 0020:008C    78 0020:008F    79 0020:0091
    80 0020:0092    81 0020:0096    82 0020:009A    83 0020:009C
    84 0020:009E    85 0020:00A2    86 0020:00A3    87 0020:00A5
    88 0020:00A9    89 0020:00AA    90 0020:00AC    91 0020:00AE
    92 0020:00AF    94 0020:00B0    95 0020:00B2    96 0020:00B3
    97 0020:00B4   104 0020:00B7   105 0020:00BA   106 0020:00BB
   107 0020:00BE   108 0020:00C1   109 0020:00C3   110 0020:00C5
   111 0020:00C6   112 0020:00C8   113 0020:00C9   114 0020:00CB
   115 0020:00CD   116 0020:00CE   117 0020:00CF   118 0020:00D0
   124 0020:00D6   125 0020:00D9   126 0020:00DA   127 0020:00DB
   128 0020:00DF   129 0020:00E1   130 0020:00E3   132 0020:00E6
   133 0020:00E7   134 0020:00E9   135 0020:00ED   136 0020:00EF
   137 0020:00F1   138 0020:00F3   139 0020:00F5   140 0020:00F7
   141 0020:00FA   142 0020:00FC   144 0020:00FD   145 0020:00FE
   151 0020:0104   152 0020:0107   153 0020:0108   154 0020:0109
   155 0020:010C   156 0020:010E   157 0020:0110   159 0020:0113
   160 0020:0114   161 0020:0116   162 0020:011A   163 0020:011C
   164 0020:011E   165 0020:0120   166 0020:0122   167 0020:0124
   168 0020:0127   169 0020:0129   171 0020:012A   172 0020:012B
   179 0020:0131   180 0020:0133   181 0020:0134   182 0020:0135
   183 0020:0139   184 0020:013C   185 0020:013E   186 0020:0140
   187 0020:0141   188 0020:0145   189 0020:0149   190 0020:014B
   191 0020:014F   193 0020:0152   194 0020:0154   195 0020:0155
   196 0020:0157   197 0020:0158

Line numbers for TXms(TXMS.PAS) segment TXms

   355 0036:0000   356 0036:000A   357 0036:000E   358 0036:0012
   359 0036:001A   360 0036:0027   361 0036:0034

Line numbers for TXms(TXMS.ASM) segment TXms

   218 0036:0062   219 0036:0067   220 0036:006E   221 0036:0074
   222 0036:0078   223 0036:007C   224 0036:0081   225 0036:0083
   226 0036:0084   227 0036:0087   228 0036:008B   229 0036:008F
   230 0036:0094   232 0036:0097   234 0036:009E   236 0036:00A3
   242 0036:00A4   243 0036:00A9   244 0036:00AC   245 0036:00AE
   246 0036:00B0   247 0036:00B4   248 0036:00B9   249 0036:00BC
   250 0036:00BE   251 0036:00C2   252 0036:00C6   253 0036:00C8
   254 0036:00CC   255 0036:00D0   256 0036:00D3   257 0036:00D7
   258 0036:00DA   259 0036:00DC   260 0036:00DE   261 0036:00E2
   262 0036:00E8   263 0036:00EE   265 0036:00F1   266 0036:00F5
   268 0036:00F9   274 0036:00FA   275 0036:00FC   276 0036:00FF
   282 0036:0100   283 0036:0102   284 0036:0104   285 0036:0108
   286 0036:010B   292 0036:010E   293 0036:0110   294 0036:0113
   299 0036:0114   300 0036:0116   301 0036:0119   306 0036:011A
   307 0036:011C   308 0036:011F   313 0036:0120   314 0036:0122
   315 0036:0125   320 0036:0126   321 0036:0128   322 0036:012B
   329 0036:012C   330 0036:012E   331 0036:0131   332 0036:0133
   337 0036:0134   338 0036:0136   339 0036:0139   347 0036:013A
   348 0036:013C   349 0036:013E   350 0036:0142   351 0036:0145
   352 0036:0147   358 0036:014A   359 0036:014C   360 0036:014E
   361 0036:0152   362 0036:0155   369 0036:0158   370 0036:015A
   371 0036:015C   372 0036:0160   373 0036:0164   374 0036:0167
   380 0036:016A   381 0036:016C   382 0036:016E   383 0036:0172
   384 0036:0175   385 0036:0177   391 0036:017A   392 0036:017C
   393 0036:017E   394 0036:0182   395 0036:0185   401 0036:0188
   402 0036:018A   403 0036:018C   404 0036:0190   405 0036:0193
   406 0036:0195   412 0036:0198   413 0036:019A   414 0036:019C
   415 0036:01A0   416 0036:01A3   417 0036:01A5   423 0036:01A8
   424 0036:01AA   425 0036:01AC   426 0036:01B0   427 0036:01B3
   428 0036:01B5   435 0036:01B8   436 0036:01BA   437 0036:01BC
   438 0036:01C0   439 0036:01C3   440 0036:01C5   446 0036:01C8
   447 0036:01CA   448 0036:01CC   449 0036:01D0   450 0036:01D3
   457 0036:01D6   458 0036:01D8   459 0036:01DA   460 0036:01DE
   461 0036:01E2   462 0036:01E5   467 0036:01E8   468 0036:01EA
   469 0036:01ED   470 0036:01F2   471 0036:01F9   472 0036:01FF
   473 0036:0203   474 0036:0207   475 0036:020C   476 0036:020E
   477 0036:020F   478 0036:0211   479 0036:0214   480 0036:0216
   482 0036:0219   484 0036:0220   486 0036:0225   496 0036:0226
   497 0036:0228   498 0036:022D   499 0036:0233   500 0036:0237
   501 0036:023C   502 0036:0240   503 0036:0245   504 0036:024A
   505 0036:0250   506 0036:0255   507 0036:025B   508 0036:025D
   509 0036:025E   510 0036:025F   511 0036:0260   512 0036:0263
   513 0036:0266   514 0036:0267   519 0036:026A   520 0036:026F
   521 0036:0276   522 0036:027C   523 0036:0280   524 0036:0284
   525 0036:028A   526 0036:028C   527 0036:028E   528 0036:028F
   529 0036:0293   530 0036:0298   531 0036:029B   533 0036:029F
   534 0036:02A3   536 0036:02A9   541 0036:02AA   542 0036:02AB
   543 0036:02AE   544 0036:02B1   545 0036:02B3   546 0036:02B7
   547 0036:02B8   552 0036:02B9   553 0036:02BC   554 0036:02C1
   555 0036:02C3   560 0036:02C4   561 0036:02C5   562 0036:02C8
   563 0036:02CD   564 0036:02D0   565 0036:02D3   566 0036:02D6
   567 0036:02D8   568 0036:02D9   569 0036:02DC   570 0036:02E1
   571 0036:02E6   577 0036:02E7   578 0036:02EA   579 0036:02EC
   580 0036:02EF   581 0036:02F3   582 0036:02F5   583 0036:02F9
   584 0036:02FB   586 0036:02FF   587 0036:0300   589 0036:0301
   590 0036:0303   591 0036:0304   596 0036:0305   597 0036:0307
   598 0036:030A   599 0036:030D   600 0036:030F   601 0036:0312
   602 0036:0316   603 0036:0318   604 0036:031A   605 0036:031B
   607 0036:031C   608 0036:031D   613 0036:031E   614 0036:0323
   615 0036:0326   616 0036:032A   617 0036:032F   618 0036:0332
   622 0036:0336   623 0036:033B   625 0036:033E   626 0036:0342
   627 0036:0346   632 0036:0347   633 0036:0349   634 0036:034B
   635 0036:034E   636 0036:0352   637 0036:0354   638 0036:0357
   639 0036:0358   640 0036:0359   641 0036:035C   642 0036:035E
   643 0036:0361   644 0036:0364   645 0036:0367   646 0036:0368
   647 0036:036D   652 0036:036E   653 0036:0370   654 0036:0372
   655 0036:0376   660 0036:0377   661 0036:0379   662 0036:037B
   663 0036:037F   668 0036:0380   669 0036:0382   670 0036:0384
   671 0036:0387   676 0036:0388   677 0036:038A   678 0036:038C
   679 0036:038E   680 0036:0392   686 0036:0393   687 0036:0395
   688 0036:039A   689 0036:039E   690 0036:03A0   691 0036:03A2
   692 0036:03A6   694 0036:03A8   699 0036:03AB   700 0036:03AD
   701 0036:03AF   702 0036:03B1   703 0036:03B5   708 0036:03B6
   709 0036:03B9   710 0036:03BE   711 0036:03C2   712 0036:03C5
   713 0036:03C8   714 0036:03CB   715 0036:03CF   716 0036:03D2
   717 0036:03D5   718 0036:03DA   719 0036:03DC   721 0036:03DE
   726 0036:03DF   727 0036:03E1   728 0036:03E5   729 0036:03E7
   734 0036:03E8   735 0036:03EA   736 0036:03EE   737 0036:03F0
   743 0036:03F1   744 0036:03F3   745 0036:03F5   746 0036:03F9
   747 0036:03FD   748 0036:03FF   754 0036:0402   755 0036:0404
   756 0036:0406   757 0036:040A   758 0036:040E   759 0036:0410
   767 0036:0413   768 0036:0415   769 0036:0417   770 0036:041B
   771 0036:041F   772 0036:0423   773 0036:0427   779 0036:042A
   780 0036:042C   781 0036:042E   782 0036:0432   783 0036:0436
   789 0036:0439   790 0036:043B   791 0036:043F   792 0036:0443
   793 0036:0446   794 0036:0448   795 0036:044A   796 0036:044E
   797 0036:0450   804 0036:0453   805 0036:0455   806 0036:0457
   807 0036:045B   808 0036:045F   809 0036:0463   815 0036:0466
   816 0036:0468   817 0036:046A   818 0036:046C   819 0036:0470
   820 0036:0474   827 0036:0477   828 0036:0479   829 0036:047B
   830 0036:047D   831 0036:0481   832 0036:0485   833 0036:0489
   840 0036:048C   841 0036:048E   842 0036:0490   843 0036:0492
   844 0036:0496   845 0036:049A   846 0036:049E   853 0036:04A1
   854 0036:04A3   855 0036:04A5   856 0036:04A7   857 0036:04AB
   858 0036:04AF   859 0036:04B3   865 0036:04B6   866 0036:04B8
   867 0036:04B9   868 0036:04BB   869 0036:04BD   870 0036:04C1
   871 0036:04C2   872 0036:04C5   873 0036:04C7   874 0036:04C8
   875 0036:04CF   876 0036:04D5   877 0036:04D9   878 0036:04DD
   879 0036:04E3   880 0036:04E5   881 0036:04E6   882 0036:04EA
   883 0036:04EF   884 0036:04F2   885 0036:04F6   886 0036:04F9
   888 0036:04FD   889 0036:0501   891 0036:0507   893 0036:050A
   894 0036:050C   906 0036:050F   907 0036:0511   908 0036:0516
   909 0036:051B   910 0036:051F   911 0036:0523   912 0036:0527
   913 0036:052B   914 0036:0530   915 0036:0535   916 0036:0539
   917 0036:053D   918 0036:0541   919 0036:0545   920 0036:054A
   921 0036:054F   922 0036:0550   923 0036:0552   924 0036:0554
   925 0036:0557   926 0036:055A   927 0036:055E   928 0036:055F
   933 0036:0562   934 0036:0564   935 0036:0568   940 0036:0569
   941 0036:056B   942 0036:056D   943 0036:0571   944 0036:0573
   950 0036:0574   951 0036:0576   952 0036:0578   953 0036:057A
   954 0036:057E   955 0036:0582   956 0036:0584   965 0036:0587
   966 0036:0589   967 0036:058B   968 0036:058F   969 0036:0593
   970 0036:0597   971 0036:059B   972 0036:059F   978 0036:05A2
   979 0036:05A7   980 0036:05AD   981 0036:05B1   982 0036:05B6
   984 0036:05B9   985 0036:05C0   986 0036:05C7   987 0036:05CD
   989 0036:05D2   994 0036:05D3   995 0036:05D8   996 0036:05DE
   997 0036:05E2   998 0036:05E7  1000 0036:05EA  1001 0036:05F1
  1002 0036:05F8  1003 0036:05FE  1005 0036:0603  1010 0036:0604
  1011 0036:0606  1012 0036:0609  1013 0036:060B  1019 0036:060C
  1020 0036:060E  1021 0036:0612  1022 0036:0615  1027 0036:0616
  1028 0036:0618  1029 0036:061A  1030 0036:061D  1036 0036:061E
  1037 0036:0620  1038 0036:0622  1039 0036:0626  1040 0036:0629
  1045 0036:062C  1046 0036:062E  1047 0036:0631  1052 0036:0632
  1053 0036:0634  1054 0036:0637  1059 0036:0638  1060 0036:063A
  1061 0036:063D  1067 0036:063E  1068 0036:0640  1069 0036:0642
  1070 0036:0646  1071 0036:0649  1076 0036:064C  1077 0036:064E
  1078 0036:0651  1083 0036:0652  1084 0036:0655  1085 0036:0658
  1086 0036:065B  1087 0036:065E  1088 0036:0660  1089 0036:0664
  1090 0036:0668  1091 0036:066A  1093 0036:066D  1095 0036:066F
  1100 0036:0670  1101 0036:0673  1102 0036:0676  1103 0036:0679
  1104 0036:067C  1105 0036:067E  1106 0036:0680  1107 0036:0684
  1108 0036:0688  1110 0036:068A  1118 0036:068B  1119 0036:068D
  1120 0036:068E  1121 0036:0691  1122 0036:0695  1123 0036:0699
  1124 0036:069E  1125 0036:06A1  1126 0036:06A2  1132 0036:06A5
  1133 0036:06A7  1134 0036:06AA  1135 0036:06AE  1136 0036:06B1
  1143 0036:06B4  1144 0036:06B6  1145 0036:06B9  1146 0036:06BD
  1147 0036:06C1  1148 0036:06C4  1155 0036:06C7  1156 0036:06C9
  1157 0036:06CC  1158 0036:06D0  1159 0036:06D4  1160 0036:06D7
  1161 0036:06D9  1170 0036:06DC  1171 0036:06DE  1172 0036:06E2
  1173 0036:06E6  1174 0036:06EA  1175 0036:06EC  1176 0036:06EF
  1177 0036:06F2  1182 0036:06F5  1183 0036:06F8  1184 0036:06FB
  1185 0036:06FD  1186 0036:06FF  1192 0036:0700  1193 0036:0702
  1194 0036:0705  1195 0036:0709  1196 0036:070C  1202 0036:070F
  1203 0036:0711  1204 0036:0714  1205 0036:0718  1206 0036:071B
  1212 0036:071E  1213 0036:0720  1214 0036:0723  1215 0036:0727
  1216 0036:072A  1222 0036:072D  1223 0036:072F  1224 0036:0732
  1225 0036:0736  1226 0036:0739  1231 0036:073C  1232 0036:073F
  1233 0036:0742  1234 0036:0744  1240 0036:0745  1241 0036:0747
  1242 0036:074A  1243 0036:074D  1244 0036:0751  1245 0036:0754
  1246 0036:0758  1247 0036:075C  1253 0036:075F  1254 0036:0761
  1255 0036:0764  1256 0036:0767  1261 0036:076A  1262 0036:076D
  1263 0036:0770  1264 0036:0772  1265 0036:0774

Line numbers for TDos(TDOS.PAS) segment TDos

   246 00AE:0000   247 00AE:000A   248 00AE:000D   249 00AE:0010
   250 00AE:0013   251 00AE:0018   252 00AE:001F   254 00AE:0021
   255 00AE:002B   256 00AE:002E

Line numbers for TDos(TDOS.ASM) segment TDos

   189 00AE:0030   190 00AE:0032   191 00AE:0037   192 00AE:003D
   193 00AE:0047   194 00AE:004E   195 00AE:0052   196 00AE:0054
   197 00AE:0056   202 00AE:0057   203 00AE:0059   204 00AE:005E
   205 00AE:0064   206 00AE:006E   207 00AE:0075   208 00AE:0079
   209 00AE:007B   210 00AE:007D   211 00AE:0082   212 00AE:0086
   213 00AE:008A   215 00AE:008F   220 00AE:0090   221 00AE:0092
   222 00AE:0097   223 00AE:009D   224 00AE:00A7   225 00AE:00AE
   226 00AE:00B2   227 00AE:00B4   228 00AE:00B6   229 00AE:00BB
   230 00AE:00BD   231 00AE:00C1   232 00AE:00C8   234 00AE:00CD
   241 00AE:00CE   242 00AE:00D0   243 00AE:00D3   249 00AE:00D4
   250 00AE:00D6   251 00AE:00D8   252 00AE:00DC   253 00AE:00DF
   258 00AE:00E2   259 00AE:00E4   260 00AE:00E7   266 00AE:00E8
   267 00AE:00EA   268 00AE:00EB   269 00AE:00ED   270 00AE:00F1
   271 00AE:00F4   272 00AE:00F5   279 00AE:00F8   280 00AE:00FA
   281 00AE:00FC   282 00AE:0100   283 00AE:0103   284 00AE:0107
   285 00AE:010A   286 00AE:010E   287 00AE:0112   288 00AE:0114
   289 00AE:0118   296 00AE:011B   297 00AE:011D   298 00AE:011E
   299 00AE:0120   300 00AE:0124   301 00AE:0128   302 00AE:012B
   303 00AE:012C   309 00AE:012F   310 00AE:0131   311 00AE:0134
   312 00AE:0136   313 00AE:013A   314 00AE:013D   315 00AE:0141
   321 00AE:0144   322 00AE:0146   323 00AE:014A   324 00AE:014D
   325 00AE:0151   326 00AE:0153   327 00AE:0156   333 00AE:0159
   334 00AE:015B   335 00AE:015E   336 00AE:0160   337 00AE:0164
   338 00AE:0167   339 00AE:016B   345 00AE:016E   346 00AE:0170
   347 00AE:0174   348 00AE:0177   349 00AE:017B   350 00AE:017D
   351 00AE:0180   357 00AE:0183   358 00AE:0185   359 00AE:0187
   360 00AE:018B   361 00AE:018E   366 00AE:0191   367 00AE:0194
   368 00AE:0197   369 00AE:0199   370 00AE:019B   375 00AE:019C
   376 00AE:019E   377 00AE:01A1   378 00AE:01A3   379 00AE:01A6
   385 00AE:01A7   386 00AE:01A9   387 00AE:01AC   388 00AE:01AE
   389 00AE:01B3   390 00AE:01B5   391 00AE:01B7   392 00AE:01BB
   393 00AE:01BE   399 00AE:01C1   400 00AE:01C3   401 00AE:01C4
   402 00AE:01C6   403 00AE:01CA   404 00AE:01CD   405 00AE:01CF
   406 00AE:01D1   407 00AE:01D2   412 00AE:01D5   413 00AE:01D8
   414 00AE:01DB   420 00AE:01DC   421 00AE:01DE   422 00AE:01E1
   423 00AE:01E5   424 00AE:01E8   429 00AE:01EB   430 00AE:01EE
   431 00AE:01F1   432 00AE:01F3   437 00AE:01F4   438 00AE:01F6
   439 00AE:01F9   440 00AE:01FD   441 00AE:01FF   442 00AE:0203
   448 00AE:0204   449 00AE:0206   450 00AE:0208   451 00AE:020C
   452 00AE:020F   453 00AE:0211   454 00AE:0213   461 00AE:0216
   462 00AE:0218   463 00AE:021A   464 00AE:021E   465 00AE:0221
   466 00AE:0225   467 00AE:0228   468 00AE:022C   469 00AE:0230
   470 00AE:0234   475 00AE:0237   476 00AE:023A   477 00AE:023D
   478 00AE:023F   484 00AE:0240   485 00AE:0242   486 00AE:0245
   487 00AE:0249   488 00AE:024C   494 00AE:024F   495 00AE:0251
   497 00AE:0253   498 00AE:0255   500 00AE:0257   502 00AE:0259
   503 00AE:025B   504 00AE:025C   505 00AE:0260   506 00AE:0263
   507 00AE:0264   517 00AE:0267   518 00AE:0269   519 00AE:026B
   520 00AE:026C   521 00AE:0270   522 00AE:0274   523 00AE:0277
   524 00AE:027B   525 00AE:027C   526 00AE:027D   533 00AE:0280
   534 00AE:0282   535 00AE:0284   536 00AE:0287   537 00AE:0288
   538 00AE:028C   539 00AE:028F   540 00AE:0293   541 00AE:0294
   542 00AE:0295   548 00AE:0298   549 00AE:029A   550 00AE:029C
   551 00AE:02A0   552 00AE:02A3   561 00AE:02A6   562 00AE:02A8
   564 00AE:02AA   566 00AE:02AC   567 00AE:02AE   568 00AE:02AF
   569 00AE:02B3   570 00AE:02B7   571 00AE:02BB   572 00AE:02BE
   573 00AE:02BF   574 00AE:02C1   575 00AE:02C5   576 00AE:02C6
   583 00AE:02C9   584 00AE:02CB   585 00AE:02CC   586 00AE:02CE
   587 00AE:02D2   588 00AE:02D5   589 00AE:02D6   596 00AE:02D9
   597 00AE:02DB   598 00AE:02DF   599 00AE:02E3   600 00AE:02E5
   601 00AE:02E7   602 00AE:02EA   608 00AE:02ED   609 00AE:02EF
   610 00AE:02F0   611 00AE:02F3   612 00AE:02F7   613 00AE:02FA
   614 00AE:02FB   621 00AE:02FE   622 00AE:0300   623 00AE:0301
   624 00AE:0304   625 00AE:0308   626 00AE:030C   627 00AE:030F
   628 00AE:0310   634 00AE:0313   635 00AE:0315   636 00AE:0317
   637 00AE:031B   638 00AE:031E   645 00AE:0321   646 00AE:0323
   647 00AE:0325   648 00AE:0329   649 00AE:032D   650 00AE:0330
   657 00AE:0333   658 00AE:0335   659 00AE:0336   660 00AE:0338
   661 00AE:033C   662 00AE:0340   663 00AE:0343   664 00AE:0344
   670 00AE:0347   671 00AE:0349   672 00AE:034B   673 00AE:034F
   674 00AE:0352   680 00AE:0355   681 00AE:0357   682 00AE:0359
   683 00AE:035D   684 00AE:035F   685 00AE:0362   692 00AE:0365
   693 00AE:0367   694 00AE:036B   695 00AE:036D   696 00AE:0371
   697 00AE:0373   698 00AE:0376   703 00AE:0379   704 00AE:037B
   705 00AE:037E   720 00AE:037F   721 00AE:0381   722 00AE:0383
   723 00AE:0387   724 00AE:038A   729 00AE:038D   730 00AE:038F
   731 00AE:0392   732 00AE:0394   737 00AE:0395   738 00AE:0397
   739 00AE:039A   740 00AE:039D   741 00AE:03A1   742 00AE:03A3
   743 00AE:03A7   750 00AE:03A8   751 00AE:03AA   752 00AE:03AB
   753 00AE:03AD   754 00AE:03B1   755 00AE:03B5   756 00AE:03B8
   757 00AE:03B9   762 00AE:03BC   763 00AE:03BE   764 00AE:03C1
   771 00AE:03C2   772 00AE:03C4   773 00AE:03C6   774 00AE:03CA
   775 00AE:03CE   776 00AE:03D1   783 00AE:03D4   784 00AE:03D6
   785 00AE:03D8   786 00AE:03D9   787 00AE:03DD   788 00AE:03E1
   789 00AE:03E4   790 00AE:03E5   796 00AE:03E8   797 00AE:03EA
   798 00AE:03ED   799 00AE:03F1   800 00AE:03F4   801 00AE:03F6
   807 00AE:03F9   808 00AE:03FB   809 00AE:03FE   810 00AE:0402
   811 00AE:0405   812 00AE:0407   820 00AE:040A   821 00AE:040C
   822 00AE:040F   823 00AE:0413   824 00AE:0417   825 00AE:041B
   826 00AE:041E   831 00AE:0421   832 00AE:0424   833 00AE:0427
   839 00AE:0428   840 00AE:042A   841 00AE:042D   842 00AE:0431
   843 00AE:0433   844 00AE:0436   849 00AE:0439   850 00AE:043C
   851 00AE:043F   857 00AE:0440   858 00AE:0442   859 00AE:0445
   860 00AE:0449   861 00AE:044B   862 00AE:044E   870 00AE:044F
   871 00AE:0451   873 00AE:0453   875 00AE:0455   876 00AE:0457
   877 00AE:0458   878 00AE:045C   879 00AE:0460   880 00AE:0463
   881 00AE:0467   882 00AE:0468   883 00AE:0469   892 00AE:046C
   893 00AE:046F   895 00AE:0471   897 00AE:0474   898 00AE:0476
   899 00AE:047A   900 00AE:047E   901 00AE:0482   902 00AE:0486
   903 00AE:048A   904 00AE:048D   911 00AE:0490   912 00AE:0493
   914 00AE:0495   916 00AE:0498   917 00AE:049C   918 00AE:049F
   926 00AE:04A2   927 00AE:04A4   928 00AE:04A6   929 00AE:04AA
   930 00AE:04AE   931 00AE:04B1   936 00AE:04B4   937 00AE:04B6
   938 00AE:04B9   939 00AE:04BB   949 00AE:04BC   950 00AE:04BE
   951 00AE:04C1   952 00AE:04C5   953 00AE:04C8   954 00AE:04CA
   960 00AE:04CD   961 00AE:04CF   962 00AE:04D0   963 00AE:04D4
   964 00AE:04D5   965 00AE:04D6   966 00AE:04D8   967 00AE:04DB
   968 00AE:04DE   969 00AE:04DF   975 00AE:04E2   976 00AE:04E4
   977 00AE:04E5   978 00AE:04E8   979 00AE:04EC   980 00AE:04EF
   981 00AE:04F0   995 00AE:04F3   996 00AE:04F5   997 00AE:04F8
   998 00AE:04FC   999 00AE:04FF  1005 00AE:0502  1006 00AE:0504
  1007 00AE:0506  1009 00AE:0508  1011 00AE:050A  1012 00AE:050D
  1038 00AE:0510  1039 00AE:0513  1040 00AE:0515  1041 00AE:0517
  1042 00AE:0519  1047 00AE:051A  1048 00AE:051C  1049 00AE:051F
  1050 00AE:0521  1051 00AE:0523  1057 00AE:0524  1058 00AE:0526
  1059 00AE:0529  1060 00AE:052D  1061 00AE:052F  1062 00AE:0531
  1063 00AE:0533  1068 00AE:0536  1069 00AE:0537  1070 00AE:0538
  1071 00AE:0539  1072 00AE:053A  1073 00AE:053B  1074 00AE:053C
  1075 00AE:053E  1076 00AE:0541  1077 00AE:0544  1078 00AE:0546
  1079 00AE:0549  1080 00AE:054C  1081 00AE:054D  1082 00AE:054E
  1083 00AE:0550  1084 00AE:0554  1086 00AE:0555  1087 00AE:0556
  1088 00AE:0557  1089 00AE:0558  1090 00AE:0559  1096 00AE:055A
  1097 00AE:055C  1098 00AE:0560  1099 00AE:0563  1100 00AE:0565
  1101 00AE:0569  1102 00AE:056B  1103 00AE:056D  1104 00AE:0570
  1106 00AE:0572  1107 00AE:0573  1108 00AE:0577  1109 00AE:0579
  1110 00AE:057B  1111 00AE:057C  1113 00AE:057E  1114 00AE:0580
  1116 00AE:0582  1118 00AE:0584  1125 00AE:0587  1126 00AE:0589
  1127 00AE:058A  1128 00AE:058B  1129 00AE:058F  1130 00AE:0593
  1131 00AE:0594  1132 00AE:0597  1133 00AE:059B  1134 00AE:059F
  1135 00AE:05A3  1136 00AE:05A5  1137 00AE:05A7  1138 00AE:05A9
  1139 00AE:05AB  1140 00AE:05AF  1141 00AE:05B1  1143 00AE:05B4
  1145 00AE:05B6  1146 00AE:05B7  1147 00AE:05B9  1148 00AE:05BB
  1149 00AE:05BC  1150 00AE:05BE  1151 00AE:05C0  1152 00AE:05C2
  1154 00AE:05C4  1155 00AE:05C6  1157 00AE:05C8

Line numbers for TSystem(TSYSTEM.PAS) segment TSystem

   231 010B:0000   276 010B:0001   277 010B:000B   278 010B:0011
   283 010B:001A   284 010B:0029   285 010B:0058   290 010B:0065
   291 010B:0074   292 010B:00A3   294 010B:00CA   295 010B:00D9
   296 010B:0124   297 010B:014E   298 010B:0178   299 010B:01A1
   300 010B:01BB   301 010B:01C3   302 010B:01D3   303 010B:01FC
   304 010B:020C   305 010B:0212   309 010B:023F   310 010B:0249
   311 010B:024C   313 010B:0253   314 010B:026E   316 010B:0276
   317 010B:0279   318 010B:027C   319 010B:027F   320 010B:0282
   321 010B:0291   324 010B:0293   325 010B:029D   326 010B:02A0

Line numbers for TSystem(TSYSTEM.ASM) segment TSystem

    70 010B:02C5    71 010B:02C7    72 010B:02CB    73 010B:02CF
    74 010B:02D0    75 010B:02D5    76 010B:02D8    85 010B:02DB
    86 010B:02DD    87 010B:02E1    88 010B:02E5    89 010B:02E9
    90 010B:02ED    91 010B:02F1    92 010B:02F3    93 010B:02F4
    94 010B:02F7    95 010B:02F9    96 010B:02FB   105 010B:02FE
   106 010B:0300   107 010B:0304   108 010B:0308   109 010B:030C
   110 010B:030E   111 010B:030F   112 010B:0313   113 010B:0314
   114 010B:0315   115 010B:0316   116 010B:0319   117 010B:031C
   118 010B:031D   119 010B:0320   120 010B:0322   130 010B:0325
   131 010B:0327   132 010B:0328   133 010B:032C   134 010B:0330
   135 010B:0334   136 010B:0338   137 010B:0339   139 010B:033B
   140 010B:033D   141 010B:0340   142 010B:0344   143 010B:0347
   144 010B:034A   145 010B:034C   146 010B:034F   147 010B:0351
   148 010B:0355   149 010B:0356   151 010B:0358   152 010B:0359
   162 010B:035C   163 010B:035E   164 010B:035F   165 010B:0363
   166 010B:0367   167 010B:036B   168 010B:036C   169 010B:036D
   170 010B:0370   171 010B:0373   172 010B:0374   173 010B:0377
   174 010B:0379   175 010B:037A   183 010B:037D   184 010B:037F
   185 010B:0380   186 010B:0384   187 010B:0388   188 010B:038B
   189 010B:038D   190 010B:038E   191 010B:038F   199 010B:0392
   200 010B:0394   201 010B:0395   202 010B:0399   203 010B:039D
   204 010B:03A0   205 010B:03A2   206 010B:03A3   207 010B:03A4
   215 010B:03A7   216 010B:03A9   217 010B:03AA   218 010B:03AE
   219 010B:03B2   220 010B:03B6   221 010B:03B9   222 010B:03BB
   223 010B:03BC   232 010B:03BF   233 010B:03C1   234 010B:03C2
   235 010B:03C6   236 010B:03C8   237 010B:03CC   238 010B:03D0
   239 010B:03D1   240 010B:03D3   241 010B:03D5   243 010B:03D6
   244 010B:03D9   245 010B:03DB   246 010B:03DE   247 010B:03E1
   248 010B:03E4   249 010B:03E6   250 010B:03E7   252 010B:03EB
   253 010B:03ED   254 010B:03F0   256 010B:03F2   257 010B:03F3
   267 010B:03F6   268 010B:03F8   269 010B:03F9   270 010B:03FD
   271 010B:03FF   272 010B:0403   273 010B:0407   274 010B:0409
   275 010B:040D   276 010B:0411   277 010B:0412   278 010B:0413
   280 010B:0415   281 010B:0417   282 010B:041B   283 010B:041D
   284 010B:0421   285 010B:0422   286 010B:0423   287 010B:0424
   288 010B:0426   289 010B:0428   290 010B:0429   291 010B:042A
   292 010B:042B   294 010B:042D   295 010B:042E   296 010B:0430
   297 010B:0432   298 010B:0434   300 010B:0437   301 010B:043A
   303 010B:043D   304 010B:043E   311 010B:0441   312 010B:0443
   313 010B:0447   314 010B:044A   321 010B:044D   322 010B:044F
   323 010B:0453   324 010B:0456   331 010B:0459   332 010B:045B
   333 010B:045F   334 010B:0462   335 010B:0466   343 010B:0469
   344 010B:046B   345 010B:046F   346 010B:0473   347 010B:0474
   355 010B:0477   356 010B:0479   357 010B:047D   358 010B:0481
   359 010B:0482   367 010B:0485   368 010B:0487   369 010B:048C
   370 010B:0490   371 010B:0492   378 010B:0495   379 010B:0497
   380 010B:049B   381 010B:049C   389 010B:049F   390 010B:04A1
   391 010B:04A5   392 010B:04A9   393 010B:04AA   401 010B:04AD
   402 010B:04AF   403 010B:04B3   404 010B:04B4   405 010B:04B5
   406 010B:04B6   415 010B:04B9   416 010B:04BB   417 010B:04BF
   418 010B:04C3   419 010B:04C7   420 010B:04C8   426 010B:04CB
   427 010B:04CC   428 010B:04CE   429 010B:04D0   430 010B:04D2
   431 010B:04D4   432 010B:04D6   433 010B:04D8   434 010B:04DA
   435 010B:04DB   436 010B:04DE   442 010B:04DF   443 010B:04E1
   444 010B:04E3   445 010B:04E7   446 010B:04EB   453 010B:04EC
   454 010B:04EE   455 010B:04EF   456 010B:04F3   457 010B:04F7
   458 010B:04F8   459 010B:04F9   460 010B:04FB   461 010B:04FD
   462 010B:04FF   463 010B:0502   464 010B:0503   471 010B:0506
   472 010B:0508   473 010B:0509   474 010B:050D   475 010B:0511
   476 010B:0512   477 010B:0513   478 010B:0515   479 010B:0517
   480 010B:0519   481 010B:051C   482 010B:051D   489 010B:0520
   490 010B:0522   491 010B:0523   492 010B:0527   493 010B:052B
   494 010B:052C   495 010B:052D   496 010B:052F   497 010B:0531
   498 010B:0533   499 010B:0536   500 010B:053A   501 010B:053B
   509 010B:053E   510 010B:0540   511 010B:0541   512 010B:0545
   513 010B:0549   514 010B:054A   515 010B:054B   516 010B:054D
   517 010B:054F   518 010B:0551   519 010B:0555   520 010B:0557
   521 010B:0558   529 010B:055B   530 010B:055D   531 010B:055E
   532 010B:0562   533 010B:0566   534 010B:0567   535 010B:0568
   536 010B:056A   537 010B:056C   538 010B:056E   539 010B:0572
   540 010B:0574   541 010B:0575   549 010B:0578   550 010B:057A
   551 010B:057B   552 010B:057F   553 010B:0583   554 010B:0584
   555 010B:0585   556 010B:0587   557 010B:0589   558 010B:058B
   559 010B:0590   560 010B:0593   561 010B:0594   569 010B:0597
   570 010B:0599   571 010B:059B   572 010B:059F   573 010B:05A1
   574 010B:05A5   575 010B:05A9   576 010B:05AA   577 010B:05AC
   578 010B:05AF   579 010B:05B1   580 010B:05B5   581 010B:05B6
   582 010B:05B8   584 010B:05BA   585 010B:05BC   592 010B:05BF
   593 010B:05C1   594 010B:05C5   595 010B:05C9   596 010B:05CB
   597 010B:05CD   608 010B:05D0   609 010B:05D3   611 010B:05D4
   612 010B:05D5   613 010B:05D7   614 010B:05D9   615 010B:05DA
   616 010B:05DC   617 010B:05DE   618 010B:05DF   619 010B:05E1
   621 010B:05E3   622 010B:05E4   628 010B:05E6   629 010B:05E9
   630 010B:05EB   631 010B:05F1   632 010B:05F4   633 010B:05F6
   639 010B:05F7   640 010B:05FA   641 010B:05FC   642 010B:0602
   643 010B:0605   644 010B:0607   650 010B:0608   651 010B:0609
   652 010B:060A   653 010B:060B   654 010B:060C   655 010B:060F
   656 010B:0612   657 010B:0613   658 010B:0614   659 010B:0615
   660 010B:0616   661 010B:0617   662 010B:0618   663 010B:061B
   664 010B:061E   665 010B:0622   666 010B:0624   668 010B:0627
   669 010B:0629   670 010B:062D   671 010B:062F   673 010B:0632
   674 010B:0634   675 010B:0636   676 010B:0638   677 010B:063B
   678 010B:063C   679 010B:0642   680 010B:0644   681 010B:0646
   682 010B:0648   683 010B:064A   684 010B:064C   685 010B:064D
   686 010B:0653   687 010B:065A   688 010B:065D   689 010B:0661
   690 010B:0663   692 010B:0666   693 010B:0667   694 010B:0669
   695 010B:066B   696 010B:066D   697 010B:0673   698 010B:0675
   699 010B:0677   700 010B:0679   701 010B:067B   702 010B:067D
   703 010B:067E   704 010B:0684   705 010B:068B   706 010B:068E
   707 010B:0692   708 010B:0694   710 010B:0697   711 010B:069C
   713 010B:06A4   714 010B:06AA   715 010B:06AE   716 010B:06AF
   717 010B:06B2   718 010B:06B4   719 010B:06B6   721 010B:06BE
   722 010B:06BF   723 010B:06C2   724 010B:06C4   725 010B:06C7
   726 010B:06C9   727 010B:06CC   728 010B:06CE   730 010B:06CF
   731 010B:06D2   736 010B:06D3   737 010B:06D4   738 010B:06D5
   739 010B:06D6   740 010B:06D8   741 010B:06DA   742 010B:06DB
   743 010B:06DF   744 010B:06E4   745 010B:06EB   746 010B:06F2
   747 010B:06F3   748 010B:06F8   749 010B:06FC   750 010B:06FD
   751 010B:06FE   752 010B:06FF   756 010B:0700   757 010B:0701
   758 010B:0702   759 010B:0703   760 010B:0708   761 010B:070D
   762 010B:070E   763 010B:0710   764 010B:0712   765 010B:0713
   766 010B:0718   767 010B:071D   768 010B:071E   769 010B:071F
   770 010B:0720   771 010B:0721   772 010B:0722   776 010B:0723
   777 010B:0724   778 010B:0725   779 010B:0729   780 010B:072B
   781 010B:072E   782 010B:072F   783 010B:0730   788 010B:0731
   789 010B:0732   790 010B:0733   791 010B:0734   792 010B:0736
   793 010B:0738   794 010B:0739   795 010B:073B   796 010B:073F
   797 010B:0743   798 010B:0745   799 010B:0747   800 010B:074B
   801 010B:0750   802 010B:0757   803 010B:075E   804 010B:075F
   805 010B:0764   806 010B:0768   807 010B:0769   808 010B:076A
   809 010B:076B   813 010B:076C   814 010B:076D   815 010B:076E
   816 010B:076F   817 010B:0774   818 010B:0779   819 010B:077A
   820 010B:077C   821 010B:077E   822 010B:077F   823 010B:0784
   824 010B:0789   825 010B:078B   826 010B:0790   827 010B:0794
   828 010B:0797   829 010B:0799   830 010B:079B   831 010B:079C
   832 010B:079D   833 010B:079E   834 010B:079F   835 010B:07A0
   843 010B:07A1   844 010B:07A2   845 010B:07A3   846 010B:07A6
   847 010B:07A8   848 010B:07AA   849 010B:07AC   850 010B:07AF
   851 010B:07B1   852 010B:07B3   853 010B:07B5   854 010B:07B9
   855 010B:07BB   856 010B:07BD   857 010B:07C1   858 010B:07C3
   859 010B:07C7   860 010B:07C8   861 010B:07CA   862 010B:07CC
   863 010B:07D0   864 010B:07D2   865 010B:07D6   866 010B:07D8
   867 010B:07DA   868 010B:07DC   869 010B:07DF   871 010B:07E2
   873 010B:07E5   874 010B:07E7   875 010B:07E9   876 010B:07EB
   877 010B:07ED   878 010B:07EF   879 010B:07F1   880 010B:07F3
   881 010B:07F5   882 010B:07F7   883 010B:07F9   884 010B:07FB
   885 010B:07FD   886 010B:07FF   887 010B:0801   888 010B:0803
   889 010B:0804   891 010B:0806   892 010B:0808   893 010B:080C
   894 010B:080E   895 010B:0810   896 010B:0812   897 010B:0814
   899 010B:0815   900 010B:0817   901 010B:0819   902 010B:081D
   903 010B:081F   904 010B:0823   905 010B:0825   906 010B:0827
   907 010B:0829   908 010B:082C   909 010B:082E   910 010B:0830
   911 010B:0832   912 010B:0834   913 010B:0839   915 010B:083D
   916 010B:0841   917 010B:0843   918 010B:0845   919 010B:0847
   920 010B:0849   921 010B:084B   923 010B:084D   924 010B:084E
   925 010B:084F   926 010B:0852

Program entry point at 0000:018C
