
 Start  Stop   Length Name               Class

 00000H 00EF7H 00EF8H TVDevLst           CODE
 00F00H 02249H 0134AH ShowTErr           CODE
 02250H 02510H 002C1H MsgBox             CODE
 02520H 032A9H 00D8AH App                CODE
 032B0H 033EFH 00140H Dos                CODE
 033F0H 06AFEH 0370FH Dialogs            CODE
 06B00H 06CE5H 001E6H HistList           CODE
 06CF0H 06D27H 00038H Validate           CODE
 06D30H 07357H 00628H NewDos             CODE
 07360H 0763CH 002DDH IVstring           CODE
 07640H 07846H 00207H IvSystem           CODE
 07850H 08172H 00923H TSystem            CODE
 08180H 0A65CH 024DDH Menus              CODE
 0A660H 0FB21H 054C2H Views              CODE
 0FB30H 10630H 00B01H Drivers            CODE
 10640H 11210H 00BD1H Objects            CODE
 11220H 11285H 00066H Strings            CODE
 11290H 1145AH 001CBH Memory             CODE
 11460H 1255DH 010FEH System             CODE
 12560H 1477FH 02220H DATA               DATA
 14780H 1877FH 04000H STACK              STACK
 18780H 18780H 00000H HEAP               HEAP

  Address         Publics by Value

 0000:0000       CharArrayToString
 0000:008B       PutInStr
 0000:012C       CheckForCharDevice
 0000:0159       GetCharDeviceType
 0000:01D2       GetBlockDeviceType
 0000:0257       GetBlockDeviceDrives
 0000:034E       GetDeviceDriversList
 0000:045A       ConvertDeviceInfoToString
 0000:0616       SayNo
 0000:064E       GetDeviceAttr
 0000:0C5E       StandardStatusLine
 0000:0DEE       DoAbout
 0000:0E9F       @
 00F0:130E       _InstallErrorHandler
 00F0:132E       _UnInstallErrorHandler
 00F0:1341       @
 0225:0000       MessageBox
 0225:00A9       MessageBoxRect
 0252:0D71       RegisterApp
 032B:0000       GetEnv
 032B:006E       Exec
 032B:0102       DosExitCode
 032B:0107       SwapVectors
 033F:3692       RegisterDialogs
 06B0:00CA       HistoryCount
 06B0:00FF       HistoryAdd
 06B0:014A       HistoryStr
 06B0:01A3       ClearHistory
 06B0:01B7       InitHistory
 06B0:01D0       DoneHistory
 06D3:0000       @
 06D3:0090       DosReadChar
 06D3:00A5       DosReadAuxChar
 06D3:00AB       DosWriteChar
 06D3:00AF       DosWritePrnChar
 06D3:00B3       DosWriteAuxChar
 06D3:00C1       GetStdInStatus
 06D3:00C9       DosBufferedInput
 06D3:00D9       DosWriteString
 06D3:00EA       DiskReset
 06D3:00F0       SelectDrive
 06D3:00FE       GetDefaultDrive
 06D3:0104       SetDiskTransferArea
 06D3:0114       GetDefDriveInfo
 06D3:0133       GetDriveInfo
 06D3:0156       GetDefDriveDPT
 06D3:0162       SetInterruptVector
 06D3:0176       GetSystemDate
 06D3:018B       SetSystemDate
 06D3:01A0       GetSystemTime
 06D3:01B5       SetSystemTime
 06D3:01CA       SetVerifyFlag
 06D3:01D8       GetDiskTransferArea
 06D3:01ED       StayTSR
 06D3:0207       GetDriveDPT
 06D3:021B       GetExtBreakCheck
 06D3:0223       SetExtBreakCheck
 06D3:022F       GetBootDrive
 06D3:0248       GetInterruptVector
 06D3:025A       GetFreeDiskSpace
 06D3:027B       GetSwitchar
 06D3:0284       SetSwitchar
 06D3:0293       CreateDirectory
 06D3:0297       RemoveDirectory
 06D3:029B       ChangeDirectory
 06D3:02AB       CreateFile
 06D3:02C4       OpenFile
 06D3:02DC       CloseFile
 06D3:02E8       ReadFile
 06D3:02EE       WriteFile
 06D3:030D       DeleteFile
 06D3:031D       SeekFile
 06D3:0331       GetFileAttribute
 06D3:0342       SetFileAttribute
 06D3:0357       DuplicateHandle
 06D3:0365       ForceDuplicateHandle
 06D3:0377       GetCurrentDirectory
 06D3:038B       AllocateMemory
 06D3:0399       ReleaseMemory
 06D3:03A9       ReallocateMemory
 06D3:03BD       GetExitCode
 06D3:03C5       SetPSP_Address
 06D3:03D3       GetPSP_Address
 06D3:03EE       ConvertBPBtoDPB
 06D3:0402       GetVerifyFlag
 06D3:0408       CreateChild_PSP
 06D3:041A       RenameFile
 06D3:042E       GetFileDate
 06D3:043F       GetFileTime
 06D3:0450       SetFileTimeDate
 06D3:0467       GetAllocationStrategy
 06D3:046E       SetAllocationStrategy
 06D3:047D       GetUMB_LinkState
 06D3:0484       SetUMB_LinkState
 06D3:0493       CreateNewFile
 06D3:0497       CreateTempFile
 06D3:04B0       UnLockFile
 06D3:04B5       LockFile
 06D3:04D4       DisableDrive
 06D3:04D9       EnableDrive
 06D3:04E6       GetTrueName
 06D3:04F8       GetCurrentPSP
 06D3:0500       CapitalizeChar
 06D3:0511       CapitalizeString
 06D3:0526       CapitalizePChar
 06D3:0534       SetHandlesCount
 06D3:0543       CommitFile
 06D3:0547       FflushFile
 06D3:056C       GetFreeHMAddr
 06D3:0576       HMAMemAvail
 06D3:057E       AllocateHMA
 06D3:05B4       GetEnvCount
 06D3:05E1       EnvPChar
 0736:0000       PcharToStr
 0736:0075       Digit
 0736:00B6       HexB
 0736:00F3       HexW
 0736:0139       HexPtr
 0736:0187       CharRep
 0736:01CC       @
 0736:01D8       PcharSize
 0736:01FC       AsciizString
 0736:021D       AscString
 0736:0249       LowCase
 0736:02B3       CheckChar
 0764:0000       FillByteVar
 0764:001E       @
 0764:0041       FastMove
 0764:0051       MovePtr
 0764:006B       SearchPtr
 0764:00B6       FastFill
 0764:00D2       FillByte
 0764:00E8       FillWord
 0764:010B       FillDWord
 0764:0122       Fill
 0764:0159       Swap
 0764:0193       SwapP
 0764:01AE       SwapB
 0764:01C8       SwapW
 0764:01E1       BitofB
 0764:01F4       BitofW
 0785:0000       DoNone
 0785:02B6       @
 0785:0330       FillDword
 0785:0343       FillWord
 0785:0362       FillByte
 0785:0388       Fill
 0785:03BA       MovePtr
 0785:03D8       SwapByte
 0785:03EB       SwapWord
 0785:03FE       SwapLong
 0785:0414       Swap
 0785:0448       SearchPtr
 0785:048F       ReadMemoryByte
 0785:049A       ReadMemoryWord
 0785:04A5       ReadMemoryDword
 0785:04B4       WriteMemoryByte
 0785:04C0       WriteMemoryWord
 0785:04CC       WriteMemoryDword
 0785:04DA       ReadPort
 0785:04E3       WritePort
 0785:04EF       ReadIndexPort
 0785:04FA       WriteIndexPort
 0785:05DE       AbsReadMemoryByte
 0785:05F6       AbsReadMemoryWord
 0785:060E       AbsReadMemoryDword
 0785:062A       AbsWriteMemoryByte
 0785:0644       AbsWriteMemoryWord
 0785:065E       AbsWriteMemoryDword
 0785:067A       CompareBuffersPtr
 0785:069F       Delay
 0785:06AE       CopyExtendedMemory
 0785:06FB       HardwareReboot
 0785:0706       WarmReboot
 0785:0717       ColdReboot
 0818:0000       NewItem
 0818:00F0       NewMenu
 0818:013E       DisposeMenu
 0818:23F1       NewStatusDef
 0818:244A       NewStatusKey
 0818:24B0       RegisterMenus
 0A66:541B       Message
 0A66:5477       RegisterViews
 0FB3:00D8       InitEvents
 0FB3:012C       DoneEvents
 0FB3:0150       ShowMouse
 0FB3:015F       HideMouse
 0FB3:016E       GetMouseEvent
 0FB3:0225       GetKeyEvent
 0FB3:0246       GetShiftState
 0FB3:0353       InitVideo
 0FB3:0369       DoneVideo
 0FB3:038B       ClearScreen
 0FB3:0405       SystemError
 0FB3:04CE       GetAltChar
 0FB3:0522       GetAltCode
 0FB3:05AA       GetCtrlChar
 0FB3:05D5       CtrlToArrow
 0FB3:0614       PrintStr
 0FB3:062E       MoveBuf
 0FB3:0656       MoveChar
 0FB3:067E       MoveCStr
 0FB3:06AA       MoveStr
 0FB3:06D4       CStrLen
 0FB3:070F       @
 0FB3:078C       InitSysError
 0FB3:082A       DoneSysError
 0FB3:09E6       FormatStr
 1064:0000       Abstract
 1064:0060       RegisterType
 1064:0B34       NewStr
 1064:0B8D       DisposeStr
 1064:0BB1       RegisterObjects
 1122:0000       StrLen
 1122:0017       StrComp
 1122:0040       StrDispose
 1129:0055       InitMemory
 1129:00AF       DoneMemory
 1129:00B8       InitDosMem
 1129:00C9       DoneDosMem
 1129:0103       NewCache
 1129:014F       DisposeCache
 1129:01AC       SetMemTop
 1256:0002       gcaCharDeviceNames
 1256:01FA       gcaCharDeviceDesc
 1256:0826       gcaBlockDeviceNames
 1256:0850       gcaBlockDeviceDesc
 1256:0928       gcaDevAttrNames
 1256:0C48       RDeviceCollection
 1256:0C56       RDeviceAttrInfo
 1256:0C64       RDeviceInfoDialog
 1256:0C72       RDeviceInfoListBox
 1256:0D88       Application
 1256:0D8C       Desktop
 1256:0D90       StatusLine
 1256:0D94       MenuBar
 1256:0D98       AppPalette
 1256:0D9A       RBackground
 1256:0DA8       RDesktop
 1256:148C       RDialog
 1256:149A       RInputLine
 1256:14A8       RButton
 1256:14B6       RCluster
 1256:14C4       RRadioButtons
 1256:14D2       RCheckBoxes
 1256:14E0       RMultiCheckBoxes
 1256:14EE       RListBox
 1256:14FC       RStaticText
 1256:150A       RLabel
 1256:1518       RHistory
 1256:1526       RParamText
 1256:15C8       HistoryBlock
 1256:15CC       HistorySize
 1256:15CE       HistoryUsed
 1256:15E0       Cpu_Type
 1256:15E1       Cpu_Vendor
 1256:15E2       Cpu_Speed
 1256:15E4       Cpu_VendorStr
 1256:15F0       CpuIDValid
 1256:15F1       BiosType
 1256:15F2       ExtendedMemorySize
 1256:1764       RMenuBar
 1256:1772       RMenuBox
 1256:1780       RStatusLine
 1256:178E       RMenuPopup
 1256:1A48       PositionalEvents
 1256:1A4A       FocusedEvents
 1256:1A4C       MinWinSize
 1256:1A50       ShadowSize
 1256:1A54       ShadowAttr
 1256:1A55       ShowMarkers
 1256:1A56       ErrorAttr
 1256:1A58       RView
 1256:1A66       RFrame
 1256:1A74       RScrollBar
 1256:1A82       RScroller
 1256:1A90       RListViewer
 1256:1A9E       RGroup
 1256:1AAC       RWindow
 1256:1ABA       SpecialChars
 1256:1AC0       CommandSetChanged
 1256:1B5C       ButtonCount
 1256:1B5D       MouseEvents
 1256:1B5E       MouseReverse
 1256:1B60       DoubleDelay
 1256:1B62       RepeatDelay
 1256:1B64       StartupMode
 1256:1B66       SaveInt09
 1256:1B6A       SysErrorFunc
 1256:1B6E       SysColorAttr
 1256:1B70       SysMonoAttr
 1256:1B72       CtrlBreakHit
 1256:1B73       SaveCtrlBreak
 1256:1B74       SysErrActive
 1256:1B75       FailSysErrors
 1256:1E24       RCollection
 1256:1E32       RStringCollection
 1256:1E40       RStrCollection
 1256:1E52       MaxHeapSize
 1256:1E54       LowMemSize
 1256:1E56       MaxBufMem
 1256:1E62       OvrCodeList
 1256:1E64       OvrHeapSize
 1256:1E66       OvrDebugPtr
 1256:1E6A       OvrHeapOrg
 1256:1E6C       OvrHeapPtr
 1256:1E6E       OvrHeapEnd
 1256:1E70       OvrLoadList
 1256:1E72       OvrDosHandle
 1256:1E74       OvrEmsHandle
 1256:1E76       HeapOrg
 1256:1E7A       HeapPtr
 1256:1E7E       HeapEnd
 1256:1E82       FreeList
 1256:1E86       FreeZero
 1256:1E8A       HeapError
 1256:1E8E       ExitProc
 1256:1E92       ExitCode
 1256:1E94       ErrorAddr
 1256:1E98       PrefixSeg
 1256:1E9A       StackLimit
 1256:1E9C       InOutRes
 1256:1E9E       RandSeed
 1256:1EA2       SelectorInc
 1256:1EA4       Seg0040
 1256:1EA6       SegA000
 1256:1EA8       SegB000
 1256:1EAA       SegB800
 1256:1EAC       Test8086
 1256:1EAD       Test8087
 1256:1EAE       FileMode
 1256:1EB2       DevApp
 1256:1EEE       DosError
 1256:1EFA       DosVersion
 1256:1EFC       DosResult
 1256:1F08       SysVars
 1256:1F0C       IndosFlagPtr
 1256:1F10       FileOpenMode
 1256:1F11       DosFlags
 1256:1F12       PspAddr
 1256:1F16       Err
 1256:1F18       Error
 1256:1F19       EType
 1256:1F1A       sgbErrorDecode
 1256:1F1C       SelfAddr
 1256:1F20       BiosConfigTable
 1256:1F24       MouseIntFlag
 1256:1F25       MouseButtons
 1256:1F26       MouseWhere
 1256:1F2A       ScreenMode
 1256:1F2C       ScreenWidth
 1256:1F2D       ScreenHeight
 1256:1F2E       HiResScreen
 1256:1F2F       CheckSnow
 1256:1F30       ScreenBuffer
 1256:1F34       CursorLines
 1256:1FD2       Input
 1256:20D2       Output
 1256:21D2       SaveInt00
 1256:21D6       SaveInt02
 1256:21DA       SaveInt1B
 1256:21DE       SaveInt21
 1256:21E2       SaveInt23
 1256:21E6       SaveInt24
 1256:21EA       SaveInt34
 1256:21EE       SaveInt35
 1256:21F2       SaveInt36
 1256:21F6       SaveInt37
 1256:21FA       SaveInt38
 1256:21FE       SaveInt39
 1256:2202       SaveInt3A
 1256:2206       SaveInt3B
 1256:220A       SaveInt3C
 1256:220E       SaveInt3D
 1256:2212       SaveInt3E
 1256:2216       SaveInt3F
 1256:221A       SaveInt75

Line numbers for TVDevLst(TVDEVLST.PAS) segment TVDevLst

   161 0000:0000   162 0000:0036   164 0000:003A   165 0000:003D
   166 0000:0058   167 0000:007E   168 0000:0087   174 0000:008B
   175 0000:00B1   177 0000:00CB   178 0000:00EF   179 0000:011E
   180 0000:0128   184 0000:012C   185 0000:013A   186 0000:014E
   187 0000:0152   194 0000:0159   195 0000:0168   196 0000:016D
   198 0000:0171   199 0000:0174   200 0000:01AE   201 0000:01BA
   202 0000:01C5   203 0000:01CB   210 0000:01D2   211 0000:01E1
   212 0000:01E6   214 0000:01EA   215 0000:01ED   216 0000:0225
   217 0000:0231   218 0000:023C   219 0000:0242   227 0000:0257
   228 0000:0266   229 0000:0278   230 0000:027C   232 0000:0280
   233 0000:0283   234 0000:029C   235 0000:02AD   236 0000:02B9
   237 0000:031C   238 0000:034A   246 0000:034E   247 0000:035C
   248 0000:0364   249 0000:0374   251 0000:038B   252 0000:0398
   254 0000:03A1   255 0000:03AF   256 0000:03DA   257 0000:03EC
   258 0000:0407   260 0000:041C   261 0000:042D   262 0000:043D
   263 0000:0446   264 0000:0452   271 0000:045A   272 0000:0469
   273 0000:0486   275 0000:0491   276 0000:04B3   277 0000:04D5
   278 0000:04F7   279 0000:0519   281 0000:0527   282 0000:054B
   283 0000:0584   284 0000:05AD   287 0000:05AF   288 0000:05CF
   291 0000:05F8   292 0000:060B   297 0000:0616   298 0000:0620
   299 0000:064A   305 0000:064E   306 0000:065C   307 0000:0665
   308 0000:068D   312 0000:0691   313 0000:069B   314 0000:06B8
   315 0000:06CB   324 0000:06D3   325 0000:06EE   327 0000:06F7
   328 0000:0709   329 0000:0739   330 0000:0759   331 0000:0770
   332 0000:0783   334 0000:078C   335 0000:07A2   336 0000:07FC
   338 0000:0802   345 0000:080B   346 0000:081A   348 0000:0830
   349 0000:0847   351 0000:0863   355 0000:0867   356 0000:0871
   357 0000:0882   358 0000:08AA   359 0000:08BA   360 0000:08E2
   361 0000:08F1   366 0000:08F5   367 0000:08FF   368 0000:090C
   376 0000:09BE   377 0000:09D8   378 0000:09EA   379 0000:0A01
   380 0000:0A10   381 0000:0A14   382 0000:0A17   383 0000:0A1A
   384 0000:0A21   385 0000:0A44   386 0000:0A4A   387 0000:0A6D
   388 0000:0A7C   389 0000:0A8A   390 0000:0A91   391 0000:0A95
   392 0000:0AAD   393 0000:0ABD   394 0000:0AC3   395 0000:0AC8
   396 0000:0AED   398 0000:0AFC   400 0000:0B10   401 0000:0B1C
   405 0000:0B25   406 0000:0B2F   407 0000:0B3E   408 0000:0B4F
   409 0000:0B56   411 0000:0B6E   413 0000:0B70   417 0000:0B74
   418 0000:0B7E   420 0000:0B91   421 0000:0B9E   425 0000:0BA9
   426 0000:0BBC   427 0000:0BC1   428 0000:0BC6   429 0000:0BCB
   430 0000:0BD0   431 0000:0BD5   432 0000:0BDF   433 0000:0BE9
   434 0000:0BF3   435 0000:0BFD   436 0000:0C0A   440 0000:0C13
   441 0000:0C1D   442 0000:0C2A   446 0000:0C5E   447 0000:0C80
   454 0000:0CDE   460 0000:0CE8   461 0000:0CF6   462 0000:0D05
   463 0000:0D0C   464 0000:0D1B   470 0000:0D36   471 0000:0D44
   472 0000:0D53   473 0000:0D5A   477 0000:0DAD   481 0000:0DEE
   482 0000:0DF8   484 0000:0E08   488 0000:0E0A   489 0000:0E14
   490 0000:0E23   492 0000:0E34   493 0000:0E3B   494 0000:0E4B
   496 0000:0E55   498 0000:0E57   500 0000:0E66   506 0000:0E6A
   507 0000:0E78   508 0000:0E8A   509 0000:0E9B   514 0000:0E9F
   515 0000:0ECC   516 0000:0ED9   517 0000:0EE3   518 0000:0EF0

Line numbers for ShowTErr(SHOWTERR.PAS) segment ShowTErr

   213 00F0:0000   219 00F0:0003   225 00F0:0033   227 00F0:0048
   229 00F0:004B   231 00F0:0051   251 00F0:0055   252 00F0:0057
   253 00F0:0059   254 00F0:005B   255 00F0:005D   256 00F0:005F
   257 00F0:0061   258 00F0:0063   259 00F0:0065   260 00F0:0067
   261 00F0:0069   262 00F0:006B   263 00F0:006D   264 00F0:006F
   265 00F0:0071   266 00F0:0073   267 00F0:0075   268 00F0:0077
   269 00F0:0079   270 00F0:007B   271 00F0:007D   272 00F0:007F
   273 00F0:0081   274 00F0:0083   275 00F0:0085   276 00F0:0087
   277 00F0:0089   278 00F0:008B   279 00F0:008D   280 00F0:008F
   281 00F0:0091   282 00F0:0093   283 00F0:0095   284 00F0:0097
   285 00F0:0099   286 00F0:009B   287 00F0:009D   288 00F0:009F
   289 00F0:00A1   290 00F0:00A3   291 00F0:00A5   292 00F0:00A7
   293 00F0:00A9   294 00F0:00AB   295 00F0:00AD   296 00F0:00AF
   297 00F0:00B1   298 00F0:00B3   299 00F0:00B5   300 00F0:00B7
   301 00F0:00B9   302 00F0:00BB   303 00F0:00BD   304 00F0:00BF
   305 00F0:00C1   306 00F0:00C3   307 00F0:00C5   308 00F0:00C7
   309 00F0:00C9   310 00F0:00CB   311 00F0:00CD   312 00F0:00CF
   313 00F0:00D1   314 00F0:00D3   315 00F0:00D5   316 00F0:00D7
   317 00F0:00D9   318 00F0:00DB   319 00F0:00DD   320 00F0:00DF
   321 00F0:00E1   322 00F0:00E3   323 00F0:00E5   324 00F0:00E7
   325 00F0:00E9   326 00F0:00EB   327 00F0:00ED   328 00F0:00EF
   329 00F0:00F1   330 00F0:00F3   331 00F0:00F5   332 00F0:00F7
   333 00F0:00F9   334 00F0:00FB   335 00F0:00FD   336 00F0:00FF
   337 00F0:0101   338 00F0:0103   339 00F0:0105   340 00F0:0107
   341 00F0:0109   342 00F0:010B   343 00F0:010D   344 00F0:010F
   345 00F0:0111   346 00F0:0113   347 00F0:0115   348 00F0:0117
   349 00F0:0119   350 00F0:011B   351 00F0:011D   352 00F0:011F
   353 00F0:0121   354 00F0:0123   355 00F0:0125   356 00F0:0127
   357 00F0:0129   358 00F0:012B   359 00F0:012D   360 00F0:012F
   361 00F0:0131   362 00F0:0133   363 00F0:0135   364 00F0:0137
   365 00F0:0139   366 00F0:013B   367 00F0:013D   368 00F0:013F
   369 00F0:0141   370 00F0:0143   371 00F0:0145   372 00F0:0147
   373 00F0:0149   374 00F0:014B   375 00F0:014D   376 00F0:014F
   377 00F0:0151   378 00F0:0153   379 00F0:0155   380 00F0:0157
   381 00F0:0159   382 00F0:015B   383 00F0:015D   384 00F0:015F
   385 00F0:0161   386 00F0:0163   387 00F0:0165   388 00F0:0167
   389 00F0:0169   390 00F0:016B   391 00F0:016D   392 00F0:016F
   393 00F0:0171   394 00F0:0173   395 00F0:0175   396 00F0:0177
   397 00F0:0179   398 00F0:017B   399 00F0:017D   400 00F0:017F
   401 00F0:0181   402 00F0:0183   403 00F0:0185   404 00F0:0187
   405 00F0:0189   406 00F0:018B   407 00F0:018D   408 00F0:018F
   409 00F0:0191   410 00F0:0193   411 00F0:0195   412 00F0:0197
   413 00F0:0199   414 00F0:019B   415 00F0:019D   416 00F0:019F
   417 00F0:01A1   418 00F0:01A3   419 00F0:01A5   420 00F0:01A7
   421 00F0:01A9   422 00F0:01AB   423 00F0:01AD   424 00F0:01AF
   425 00F0:01B1   426 00F0:01B3   427 00F0:01B5   428 00F0:01B7
   429 00F0:01B9   430 00F0:01BB   431 00F0:01BD   432 00F0:01BF
   433 00F0:01C1   434 00F0:01C3   435 00F0:01C5   436 00F0:01C7
   437 00F0:01C9   438 00F0:01CB   439 00F0:01CD   440 00F0:01CF
   441 00F0:01D1   442 00F0:01D3   443 00F0:01D5   444 00F0:01D7
   445 00F0:01D9   446 00F0:01DB   447 00F0:01DD   448 00F0:01DF
   449 00F0:01E1   450 00F0:01E3   451 00F0:01E5   452 00F0:01E7
   453 00F0:01E9   454 00F0:01EB   455 00F0:01ED   456 00F0:01EF
   457 00F0:01F1   458 00F0:01F3   459 00F0:01F5   460 00F0:01F7
   461 00F0:01F9   462 00F0:01FB   463 00F0:01FD   464 00F0:01FF
   465 00F0:0201   466 00F0:0203   467 00F0:0205   468 00F0:0207
   469 00F0:0209   470 00F0:020B   471 00F0:020D   472 00F0:020F
   473 00F0:0211   474 00F0:0213   475 00F0:0215   476 00F0:0217
   477 00F0:0219   478 00F0:021B   479 00F0:021D   480 00F0:021F
   481 00F0:0221   482 00F0:0223   483 00F0:0225   484 00F0:0227
   485 00F0:0229   486 00F0:022B   487 00F0:022D   488 00F0:022F
   489 00F0:0231   490 00F0:0233   491 00F0:0235   492 00F0:0237
   493 00F0:0239   494 00F0:023B   495 00F0:023D   496 00F0:023F
   497 00F0:0241   498 00F0:0243   499 00F0:0245   500 00F0:0247
   501 00F0:0249   502 00F0:024B   503 00F0:024D   504 00F0:024F
   505 00F0:0251   506 00F0:0253   581 00F0:0255   586 00F0:025D
   588 00F0:0275   590 00F0:0284   592 00F0:0293   594 00F0:02A6
   596 00F0:02B9   598 00F0:02CD   600 00F0:02ED   602 00F0:0301
   604 00F0:031E   606 00F0:0332   608 00F0:0341   610 00F0:035A
   612 00F0:0367   614 00F0:037C   616 00F0:039C   618 00F0:03B7
   620 00F0:03C5   622 00F0:03D9   624 00F0:03E6   626 00F0:03F0
   628 00F0:0407   630 00F0:0412   632 00F0:0434   634 00F0:043F
   636 00F0:0452   638 00F0:0463   640 00F0:047E   642 00F0:0490
   644 00F0:04A1   646 00F0:04B1   648 00F0:04C3   650 00F0:04D2
   652 00F0:04E6   654 00F0:04F6   656 00F0:0510   658 00F0:0523
   660 00F0:0530   662 00F0:0548   664 00F0:0566   666 00F0:0584
   668 00F0:059E   670 00F0:05B5   672 00F0:05C2   674 00F0:05E2
   676 00F0:0601   678 00F0:061D   680 00F0:063D   682 00F0:0656
   684 00F0:0672   686 00F0:0683   688 00F0:06A3   690 00F0:06BB
   692 00F0:06D4   694 00F0:06E2   696 00F0:0700   698 00F0:0717
   700 00F0:0733   702 00F0:0752   704 00F0:076D   706 00F0:078A
   708 00F0:07AE   710 00F0:07C1   712 00F0:07DA   714 00F0:07E6
   716 00F0:0802   718 00F0:0811   720 00F0:0827   722 00F0:083D
   724 00F0:084E   726 00F0:0860   728 00F0:0873   730 00F0:0895
   732 00F0:08BD   734 00F0:08DA   736 00F0:08F8   738 00F0:0911
   743 00F0:0929   745 00F0:0939   747 00F0:094A   749 00F0:095C
   751 00F0:096A   753 00F0:0982   755 00F0:099B   760 00F0:09B2
   762 00F0:09CD   764 00F0:09ED   766 00F0:0A0A   768 00F0:0A39
   770 00F0:0A59   772 00F0:0A75   774 00F0:0A8C   776 00F0:0AA2
   778 00F0:0ABB   780 00F0:0AD4   782 00F0:0AF2   784 00F0:0B08
   786 00F0:0B24   788 00F0:0B39   790 00F0:0B59   792 00F0:0B6D
   794 00F0:0B7A   796 00F0:0B88   798 00F0:0B98   800 00F0:0BA7
   802 00F0:0BBB   804 00F0:0BCC   806 00F0:0BDF   808 00F0:0C0F
   810 00F0:0C28   812 00F0:0C3F   814 00F0:0C50   816 00F0:0C61
   818 00F0:0C77   820 00F0:0C89   822 00F0:0CA0   824 00F0:0CAD
   826 00F0:0CBC   828 00F0:0CCA   830 00F0:0CD8   832 00F0:0CE3
   834 00F0:0CEE   836 00F0:0D01   838 00F0:0D15   840 00F0:0D29
   842 00F0:0D38   844 00F0:0D42   849 00F0:0D58   851 00F0:0D70
   853 00F0:0D90   858 00F0:0DA0   863 00F0:0DB7   868 00F0:0DC9
   873 00F0:0DD7   875 00F0:0DE7   877 00F0:0DFA   879 00F0:0E0B
   881 00F0:0E20   883 00F0:0E33   885 00F0:0E45   890 00F0:0E56
   892 00F0:0E66   894 00F0:0E78   896 00F0:0E8F   898 00F0:0EA6
   900 00F0:0EB7   902 00F0:0EC7   904 00F0:0ED6   906 00F0:0EE7
   908 00F0:0EFA   910 00F0:0F0E   912 00F0:0F22   914 00F0:0F3B
   916 00F0:0F4C   918 00F0:0F60   920 00F0:0F76   922 00F0:0F8C
   924 00F0:0F9B   926 00F0:0FB5   928 00F0:0FCA   930 00F0:0FE9
   932 00F0:0FFA   934 00F0:100E   939 00F0:1026   941 00F0:1037
   943 00F0:1049   945 00F0:105E   947 00F0:1072   949 00F0:108C
   951 00F0:10A4   953 00F0:10BD   955 00F0:10DE   957 00F0:10FC
   959 00F0:1114   961 00F0:112B   963 00F0:1143   965 00F0:115D
   967 00F0:117B   969 00F0:1195   971 00F0:11AF   976 00F0:11C8
   978 00F0:11EF   980 00F0:1203   982 00F0:1220   984 00F0:123C
   986 00F0:1250   993 00F0:1265   994 00F0:1268   995 00F0:126A
   996 00F0:126C   997 00F0:126F   998 00F0:1270  1000 00F0:1272
  1051 00F0:1273  1052 00F0:1276  1053 00F0:1279  1054 00F0:127B
  1055 00F0:127E  1057 00F0:1280  1058 00F0:1282  1059 00F0:1284
  1060 00F0:1286  1061 00F0:1288  1063 00F0:128A  1064 00F0:128C
  1065 00F0:128D  1066 00F0:1290  1068 00F0:1291  1069 00F0:1293
  1076 00F0:1294  1077 00F0:1295  1078 00F0:1297  1079 00F0:129A
  1081 00F0:129B  1082 00F0:129C  1083 00F0:129E  1084 00F0:12A0
  1085 00F0:12A2  1086 00F0:12A4  1087 00F0:12A7  1088 00F0:12A8
  1090 00F0:12AA  1091 00F0:12AC  1092 00F0:12AE  1093 00F0:12B0
  1100 00F0:12B2  1101 00F0:12B4  1102 00F0:12B6  1103 00F0:12B8
  1109 00F0:12B9  1110 00F0:12BC  1111 00F0:12C0  1147 00F0:12C2
  1148 00F0:12C5  1150 00F0:12C8  1151 00F0:12CB  1153 00F0:12CE
  1154 00F0:12D1  1156 00F0:12D4  1157 00F0:12D8  1158 00F0:12DA
  1159 00F0:12DC  1160 00F0:12E1  1162 00F0:12E4  1163 00F0:12E7
  1165 00F0:12EA  1166 00F0:12ED  1168 00F0:12F0  1169 00F0:12F2
  1171 00F0:12F5  1172 00F0:12F8  1174 00F0:12FB  1175 00F0:12FE
  1177 00F0:1301  1178 00F0:1303  1179 00F0:1306  1181 00F0:1309
  1182 00F0:130A  1195 00F0:130D  1792 00F0:130E  1793 00F0:1311
  1794 00F0:131F  1795 00F0:132C  1802 00F0:132E  1803 00F0:1331
  1804 00F0:133F  1808 00F0:1341  1809 00F0:1344  1810 00F0:1348

Line numbers for NewDos(NEWDOS.PAS) segment NewDos

   227 06D3:0000   228 06D3:000A   229 06D3:000D   230 06D3:001A

Line numbers for IVstring(IVSTRING.PAS) segment IVstring

   126 0736:0000   127 0736:000E   128 0736:002E   129 0736:0043
   130 0736:0066   131 0736:006F   167 0736:0075   168 0736:0084
   169 0736:009C   170 0736:00B0   294 0736:00B6   295 0736:00C0
   296 0736:00D7   297 0736:00EB   298 0736:00EF   301 0736:00F3
   302 0736:0102   303 0736:0131   306 0736:0139   307 0736:0148
   308 0736:0181   443 0736:0187   444 0736:0196   445 0736:019D
   446 0736:01B2   447 0736:01C6   484 0736:01CC   485 0736:01D6

Line numbers for IvSystem(IVSYSTEM.PAS) segment IvSystem

   100 0764:0000   101 0764:000A   102 0764:001A   175 0764:001E
   176 0764:0028   177 0764:002D   178 0764:0032   179 0764:003F

Line numbers for TSystem(TSYSTEM.PAS) segment TSystem

   213 0785:0000   258 0785:0001   259 0785:000B   260 0785:0011
   265 0785:001A   266 0785:0029   267 0785:005A   272 0785:0069
   273 0785:0078   274 0785:00A9   276 0785:00D2   277 0785:00E1
   278 0785:0131   279 0785:015E   280 0785:018B   281 0785:01B7
   282 0785:01D1   283 0785:01DA   284 0785:01EB   285 0785:0217
   286 0785:0228   287 0785:022F   291 0785:025E   292 0785:0268
   293 0785:026B   294 0785:026E   295 0785:0271   296 0785:0274
   298 0785:027B   299 0785:0297   301 0785:029F   302 0785:02A2
   303 0785:02A5   304 0785:02B4   307 0785:02B6   308 0785:02C0
   309 0785:02C3

Line numbers for Memory(MEMORY.PAS) segment Memory

   251 1129:0000   252 1129:0003   253 1129:0007   254 1129:0009
   255 1129:000C   256 1129:0010   257 1129:0012   258 1129:0014
   259 1129:0017   260 1129:001B   261 1129:001D   262 1129:001F
   263 1129:0020   264 1129:0021   265 1129:0026   266 1129:0028
   267 1129:002B   270 1129:002F   271 1129:0032   272 1129:0053
   277 1129:0055   278 1129:005B   279 1129:0068   281 1129:006F
   282 1129:0079   283 1129:0088   284 1129:008E   285 1129:0097
   287 1129:009D   288 1129:00AB   291 1129:00AF   292 1129:00B2
   293 1129:00B6   296 1129:00B8   297 1129:00BB   298 1129:00C7
   303 1129:00C9   304 1129:00CF   305 1129:00DB   307 1129:00E4
   308 1129:00E8   310 1129:00F5   311 1129:00FF   361 1129:0103
   362 1129:0106   363 1129:0109   364 1129:010C   365 1129:010F
   366 1129:0111   367 1129:0113   368 1129:0117   369 1129:0119
   370 1129:011B   371 1129:011F   372 1129:0121   373 1129:0125
   374 1129:0127   375 1129:012B   376 1129:012D   377 1129:0131
   378 1129:0132   379 1129:0134   380 1129:0136   381 1129:0138
   382 1129:013B   383 1129:013E   384 1129:013F   385 1129:0142
   386 1129:0144   387 1129:0146   388 1129:0147   389 1129:0148
   390 1129:0149   391 1129:014A   392 1129:014B   395 1129:014F
   396 1129:0152   397 1129:0155   398 1129:0157   399 1129:0159
   400 1129:015C   401 1129:015E   402 1129:0160   403 1129:0162
   404 1129:0165   405 1129:0169   406 1129:016B   407 1129:016C
   408 1129:016D   409 1129:016F   410 1129:0170   411 1129:0174
   412 1129:0176   413 1129:0177   414 1129:0178   415 1129:0179
   416 1129:017A   417 1129:017D   418 1129:017F   419 1129:0180
   420 1129:0181   421 1129:0182   422 1129:0184   423 1129:0186
   424 1129:0188   425 1129:018A   426 1129:018C   427 1129:018E
   428 1129:0190   429 1129:0192   430 1129:0193   431 1129:0194
   432 1129:0196   433 1129:0197   434 1129:0199   435 1129:019D
   436 1129:01A0   437 1129:01A1   438 1129:01A2   439 1129:01A4
   440 1129:01A8   569 1129:01AC   570 1129:01AF   571 1129:01B2
   572 1129:01B5   573 1129:01B7   574 1129:01B9   575 1129:01BC
   576 1129:01BF   577 1129:01C1   578 1129:01C3   579 1129:01C5
   580 1129:01C7

Program entry point at 0000:0E9F
